
Day08_assign.elf:     file format elf32-littlearm

Sections:
Idx Name          Size      VMA       LMA       File off  Algn
  0 .isr_vector   00000188  08000000  08000000  00001000  2**0
                  CONTENTS, ALLOC, LOAD, READONLY, DATA
  1 .text         000014b4  08000190  08000190  00001190  2**4
                  CONTENTS, ALLOC, LOAD, READONLY, CODE
  2 .rodata       00000168  08001644  08001644  00002644  2**2
                  CONTENTS, ALLOC, LOAD, READONLY, DATA
  3 .ARM.extab    00000000  080017ac  080017ac  00003054  2**0
                  CONTENTS
  4 .ARM          00000008  080017ac  080017ac  000027ac  2**2
                  CONTENTS, ALLOC, LOAD, READONLY, DATA
  5 .preinit_array 00000000  080017b4  080017b4  00003054  2**0
                  CONTENTS, ALLOC, LOAD, DATA
  6 .init_array   00000004  080017b4  080017b4  000027b4  2**2
                  CONTENTS, ALLOC, LOAD, READONLY, DATA
  7 .fini_array   00000004  080017b8  080017b8  000027b8  2**2
                  CONTENTS, ALLOC, LOAD, READONLY, DATA
  8 .data         00000054  20000000  080017bc  00003000  2**2
                  CONTENTS, ALLOC, LOAD, DATA
  9 .ccmram       00000000  10000000  10000000  00003054  2**0
                  CONTENTS
 10 .bss          00000168  20000054  20000054  00003054  2**2
                  ALLOC
 11 ._user_heap_stack 00000604  200001bc  200001bc  00003054  2**0
                  ALLOC
 12 .ARM.attributes 0000002a  00000000  00000000  00003054  2**0
                  CONTENTS, READONLY
 13 .debug_info   000014fd  00000000  00000000  0000307e  2**0
                  CONTENTS, READONLY, DEBUGGING, OCTETS
 14 .debug_abbrev 0000073a  00000000  00000000  0000457b  2**0
                  CONTENTS, READONLY, DEBUGGING, OCTETS
 15 .debug_aranges 00000178  00000000  00000000  00004cb8  2**3
                  CONTENTS, READONLY, DEBUGGING, OCTETS
 16 .debug_rnglists 000000fb  00000000  00000000  00004e30  2**0
                  CONTENTS, READONLY, DEBUGGING, OCTETS
 17 .debug_macro  000194b6  00000000  00000000  00004f2b  2**0
                  CONTENTS, READONLY, DEBUGGING, OCTETS
 18 .debug_line   00001ff3  00000000  00000000  0001e3e1  2**0
                  CONTENTS, READONLY, DEBUGGING, OCTETS
 19 .debug_str    0008be34  00000000  00000000  000203d4  2**0
                  CONTENTS, READONLY, DEBUGGING, OCTETS
 20 .comment      00000043  00000000  00000000  000ac208  2**0
                  CONTENTS, READONLY
 21 .debug_frame  00000ac4  00000000  00000000  000ac24c  2**2
                  CONTENTS, READONLY, DEBUGGING, OCTETS
 22 .debug_loclists 0000001f  00000000  00000000  000acd10  2**0
                  CONTENTS, READONLY, DEBUGGING, OCTETS
 23 .debug_line_str 00000062  00000000  00000000  000acd2f  2**0
                  CONTENTS, READONLY, DEBUGGING, OCTETS

Disassembly of section .text:

08000190 <__do_global_dtors_aux>:
 8000190:	b510      	push	{r4, lr}
 8000192:	4c05      	ldr	r4, [pc, #20]	@ (80001a8 <__do_global_dtors_aux+0x18>)
 8000194:	7823      	ldrb	r3, [r4, #0]
 8000196:	b933      	cbnz	r3, 80001a6 <__do_global_dtors_aux+0x16>
 8000198:	4b04      	ldr	r3, [pc, #16]	@ (80001ac <__do_global_dtors_aux+0x1c>)
 800019a:	b113      	cbz	r3, 80001a2 <__do_global_dtors_aux+0x12>
 800019c:	4804      	ldr	r0, [pc, #16]	@ (80001b0 <__do_global_dtors_aux+0x20>)
 800019e:	f3af 8000 	nop.w
 80001a2:	2301      	movs	r3, #1
 80001a4:	7023      	strb	r3, [r4, #0]
 80001a6:	bd10      	pop	{r4, pc}
 80001a8:	20000054 	.word	0x20000054
 80001ac:	00000000 	.word	0x00000000
 80001b0:	0800162c 	.word	0x0800162c

080001b4 <frame_dummy>:
 80001b4:	b508      	push	{r3, lr}
 80001b6:	4b03      	ldr	r3, [pc, #12]	@ (80001c4 <frame_dummy+0x10>)
 80001b8:	b11b      	cbz	r3, 80001c2 <frame_dummy+0xe>
 80001ba:	4903      	ldr	r1, [pc, #12]	@ (80001c8 <frame_dummy+0x14>)
 80001bc:	4803      	ldr	r0, [pc, #12]	@ (80001cc <frame_dummy+0x18>)
 80001be:	f3af 8000 	nop.w
 80001c2:	bd08      	pop	{r3, pc}
 80001c4:	00000000 	.word	0x00000000
 80001c8:	20000058 	.word	0x20000058
 80001cc:	0800162c 	.word	0x0800162c

080001d0 <strlen>:
 80001d0:	4603      	mov	r3, r0
 80001d2:	f813 2b01 	ldrb.w	r2, [r3], #1
 80001d6:	2a00      	cmp	r2, #0
 80001d8:	d1fb      	bne.n	80001d2 <strlen+0x2>
 80001da:	1a18      	subs	r0, r3, r0
 80001dc:	3801      	subs	r0, #1
 80001de:	4770      	bx	lr

080001e0 <memchr>:
 80001e0:	f001 01ff 	and.w	r1, r1, #255	@ 0xff
 80001e4:	2a10      	cmp	r2, #16
 80001e6:	db2b      	blt.n	8000240 <memchr+0x60>
 80001e8:	f010 0f07 	tst.w	r0, #7
 80001ec:	d008      	beq.n	8000200 <memchr+0x20>
 80001ee:	f810 3b01 	ldrb.w	r3, [r0], #1
 80001f2:	3a01      	subs	r2, #1
 80001f4:	428b      	cmp	r3, r1
 80001f6:	d02d      	beq.n	8000254 <memchr+0x74>
 80001f8:	f010 0f07 	tst.w	r0, #7
 80001fc:	b342      	cbz	r2, 8000250 <memchr+0x70>
 80001fe:	d1f6      	bne.n	80001ee <memchr+0xe>
 8000200:	b4f0      	push	{r4, r5, r6, r7}
 8000202:	ea41 2101 	orr.w	r1, r1, r1, lsl #8
 8000206:	ea41 4101 	orr.w	r1, r1, r1, lsl #16
 800020a:	f022 0407 	bic.w	r4, r2, #7
 800020e:	f07f 0700 	mvns.w	r7, #0
 8000212:	2300      	movs	r3, #0
 8000214:	e8f0 5602 	ldrd	r5, r6, [r0], #8
 8000218:	3c08      	subs	r4, #8
 800021a:	ea85 0501 	eor.w	r5, r5, r1
 800021e:	ea86 0601 	eor.w	r6, r6, r1
 8000222:	fa85 f547 	uadd8	r5, r5, r7
 8000226:	faa3 f587 	sel	r5, r3, r7
 800022a:	fa86 f647 	uadd8	r6, r6, r7
 800022e:	faa5 f687 	sel	r6, r5, r7
 8000232:	b98e      	cbnz	r6, 8000258 <memchr+0x78>
 8000234:	d1ee      	bne.n	8000214 <memchr+0x34>
 8000236:	bcf0      	pop	{r4, r5, r6, r7}
 8000238:	f001 01ff 	and.w	r1, r1, #255	@ 0xff
 800023c:	f002 0207 	and.w	r2, r2, #7
 8000240:	b132      	cbz	r2, 8000250 <memchr+0x70>
 8000242:	f810 3b01 	ldrb.w	r3, [r0], #1
 8000246:	3a01      	subs	r2, #1
 8000248:	ea83 0301 	eor.w	r3, r3, r1
 800024c:	b113      	cbz	r3, 8000254 <memchr+0x74>
 800024e:	d1f8      	bne.n	8000242 <memchr+0x62>
 8000250:	2000      	movs	r0, #0
 8000252:	4770      	bx	lr
 8000254:	3801      	subs	r0, #1
 8000256:	4770      	bx	lr
 8000258:	2d00      	cmp	r5, #0
 800025a:	bf06      	itte	eq
 800025c:	4635      	moveq	r5, r6
 800025e:	3803      	subeq	r0, #3
 8000260:	3807      	subne	r0, #7
 8000262:	f015 0f01 	tst.w	r5, #1
 8000266:	d107      	bne.n	8000278 <memchr+0x98>
 8000268:	3001      	adds	r0, #1
 800026a:	f415 7f80 	tst.w	r5, #256	@ 0x100
 800026e:	bf02      	ittt	eq
 8000270:	3001      	addeq	r0, #1
 8000272:	f415 3fc0 	tsteq.w	r5, #98304	@ 0x18000
 8000276:	3001      	addeq	r0, #1
 8000278:	bcf0      	pop	{r4, r5, r6, r7}
 800027a:	3801      	subs	r0, #1
 800027c:	4770      	bx	lr
 800027e:	bf00      	nop

08000280 <EEPROM_Init>:
 *      Author: Nilesh
 */

#include "eeprom.h"

void EEPROM_Init(void) {
 8000280:	b580      	push	{r7, lr}
 8000282:	b082      	sub	sp, #8
 8000284:	af00      	add	r7, sp, #0
	int ret;
	I2CInit();
 8000286:	f000 f965 	bl	8000554 <I2CInit>
	// optional -- check if eeprom is present
	I2CStart();
 800028a:	f000 f8a3 	bl	80003d4 <I2CStart>
	ret = I2CIsDeviceReady(EEPROM_W);
 800028e:	20a0      	movs	r0, #160	@ 0xa0
 8000290:	f000 f942 	bl	8000518 <I2CIsDeviceReady>
 8000294:	6078      	str	r0, [r7, #4]
	// if ret=0, eeprom not avail; otherwise, eeprom is avail.
	I2CStop();
 8000296:	f000 f8b9 	bl	800040c <I2CStop>
}
 800029a:	bf00      	nop
 800029c:	3708      	adds	r7, #8
 800029e:	46bd      	mov	sp, r7
 80002a0:	bd80      	pop	{r7, pc}

080002a2 <EEPROM_Write>:

void EEPROM_Write(uint16_t addr, uint8_t byte[], uint8_t n) {
 80002a2:	b580      	push	{r7, lr}
 80002a4:	b084      	sub	sp, #16
 80002a6:	af00      	add	r7, sp, #0
 80002a8:	4603      	mov	r3, r0
 80002aa:	6039      	str	r1, [r7, #0]
 80002ac:	80fb      	strh	r3, [r7, #6]
 80002ae:	4613      	mov	r3, r2
 80002b0:	717b      	strb	r3, [r7, #5]
	uint8_t high = addr >> 8, low = addr & 0xFF;
 80002b2:	88fb      	ldrh	r3, [r7, #6]
 80002b4:	0a1b      	lsrs	r3, r3, #8
 80002b6:	b29b      	uxth	r3, r3
 80002b8:	72fb      	strb	r3, [r7, #11]
 80002ba:	88fb      	ldrh	r3, [r7, #6]
 80002bc:	72bb      	strb	r3, [r7, #10]
	I2CStart();
 80002be:	f000 f889 	bl	80003d4 <I2CStart>
	I2CSendSlaveAddress(EEPROM_W);
 80002c2:	20a0      	movs	r0, #160	@ 0xa0
 80002c4:	f000 f8b8 	bl	8000438 <I2CSendSlaveAddress>
	I2CSendData(high);
 80002c8:	7afb      	ldrb	r3, [r7, #11]
 80002ca:	4618      	mov	r0, r3
 80002cc:	f000 f8ce 	bl	800046c <I2CSendData>
	I2CSendData(low);
 80002d0:	7abb      	ldrb	r3, [r7, #10]
 80002d2:	4618      	mov	r0, r3
 80002d4:	f000 f8ca 	bl	800046c <I2CSendData>
	for(int i=0; i<n; i++)
 80002d8:	2300      	movs	r3, #0
 80002da:	60fb      	str	r3, [r7, #12]
 80002dc:	e009      	b.n	80002f2 <EEPROM_Write+0x50>
		I2CSendData(byte[i]);
 80002de:	68fb      	ldr	r3, [r7, #12]
 80002e0:	683a      	ldr	r2, [r7, #0]
 80002e2:	4413      	add	r3, r2
 80002e4:	781b      	ldrb	r3, [r3, #0]
 80002e6:	4618      	mov	r0, r3
 80002e8:	f000 f8c0 	bl	800046c <I2CSendData>
	for(int i=0; i<n; i++)
 80002ec:	68fb      	ldr	r3, [r7, #12]
 80002ee:	3301      	adds	r3, #1
 80002f0:	60fb      	str	r3, [r7, #12]
 80002f2:	797b      	ldrb	r3, [r7, #5]
 80002f4:	68fa      	ldr	r2, [r7, #12]
 80002f6:	429a      	cmp	r2, r3
 80002f8:	dbf1      	blt.n	80002de <EEPROM_Write+0x3c>
	I2CStop();
 80002fa:	f000 f887 	bl	800040c <I2CStop>
}
 80002fe:	bf00      	nop
 8000300:	3710      	adds	r7, #16
 8000302:	46bd      	mov	sp, r7
 8000304:	bd80      	pop	{r7, pc}

08000306 <EEPROM_Read>:

void EEPROM_Read(uint16_t addr, uint8_t byte[], uint8_t n) {
 8000306:	b590      	push	{r4, r7, lr}
 8000308:	b085      	sub	sp, #20
 800030a:	af00      	add	r7, sp, #0
 800030c:	4603      	mov	r3, r0
 800030e:	6039      	str	r1, [r7, #0]
 8000310:	80fb      	strh	r3, [r7, #6]
 8000312:	4613      	mov	r3, r2
 8000314:	717b      	strb	r3, [r7, #5]
	int i;
	uint8_t high = addr >> 8, low = addr & 0xFF;
 8000316:	88fb      	ldrh	r3, [r7, #6]
 8000318:	0a1b      	lsrs	r3, r3, #8
 800031a:	b29b      	uxth	r3, r3
 800031c:	72fb      	strb	r3, [r7, #11]
 800031e:	88fb      	ldrh	r3, [r7, #6]
 8000320:	72bb      	strb	r3, [r7, #10]
	I2CStart();
 8000322:	f000 f857 	bl	80003d4 <I2CStart>
	I2CSendSlaveAddress(EEPROM_W);
 8000326:	20a0      	movs	r0, #160	@ 0xa0
 8000328:	f000 f886 	bl	8000438 <I2CSendSlaveAddress>
	I2CSendData(high);
 800032c:	7afb      	ldrb	r3, [r7, #11]
 800032e:	4618      	mov	r0, r3
 8000330:	f000 f89c 	bl	800046c <I2CSendData>
	I2CSendData(low);
 8000334:	7abb      	ldrb	r3, [r7, #10]
 8000336:	4618      	mov	r0, r3
 8000338:	f000 f898 	bl	800046c <I2CSendData>
	I2CRepeatStart();
 800033c:	f000 f860 	bl	8000400 <I2CRepeatStart>
	I2CSendSlaveAddress(EEPROM_R);
 8000340:	20a1      	movs	r0, #161	@ 0xa1
 8000342:	f000 f879 	bl	8000438 <I2CSendSlaveAddress>
	for(i=0; i<n-1; i++)
 8000346:	2300      	movs	r3, #0
 8000348:	60fb      	str	r3, [r7, #12]
 800034a:	e009      	b.n	8000360 <EEPROM_Read+0x5a>
		byte[i] = I2CRecvDataAck();
 800034c:	68fb      	ldr	r3, [r7, #12]
 800034e:	683a      	ldr	r2, [r7, #0]
 8000350:	18d4      	adds	r4, r2, r3
 8000352:	f000 f8a9 	bl	80004a8 <I2CRecvDataAck>
 8000356:	4603      	mov	r3, r0
 8000358:	7023      	strb	r3, [r4, #0]
	for(i=0; i<n-1; i++)
 800035a:	68fb      	ldr	r3, [r7, #12]
 800035c:	3301      	adds	r3, #1
 800035e:	60fb      	str	r3, [r7, #12]
 8000360:	797b      	ldrb	r3, [r7, #5]
 8000362:	3b01      	subs	r3, #1
 8000364:	68fa      	ldr	r2, [r7, #12]
 8000366:	429a      	cmp	r2, r3
 8000368:	dbf0      	blt.n	800034c <EEPROM_Read+0x46>
	byte[i] = I2CRecvDataNAck();
 800036a:	68fb      	ldr	r3, [r7, #12]
 800036c:	683a      	ldr	r2, [r7, #0]
 800036e:	18d4      	adds	r4, r2, r3
 8000370:	f000 f8b6 	bl	80004e0 <I2CRecvDataNAck>
 8000374:	4603      	mov	r3, r0
 8000376:	7023      	strb	r3, [r4, #0]
	I2CStop();
 8000378:	f000 f848 	bl	800040c <I2CStop>
}
 800037c:	bf00      	nop
 800037e:	3714      	adds	r7, #20
 8000380:	46bd      	mov	sp, r7
 8000382:	bd90      	pop	{r4, r7, pc}

08000384 <DelayMs>:
uint32_t DWT_Init(void);

#ifndef DELAY_MS
#define DELAY_MS

static inline void DelayMs(volatile uint32_t ms) {
 8000384:	b480      	push	{r7}
 8000386:	b085      	sub	sp, #20
 8000388:	af00      	add	r7, sp, #0
 800038a:	6078      	str	r0, [r7, #4]
	uint32_t init_ticks = DWT->CYCCNT;
 800038c:	4b0e      	ldr	r3, [pc, #56]	@ (80003c8 <DelayMs+0x44>)
 800038e:	685b      	ldr	r3, [r3, #4]
 8000390:	60fb      	str	r3, [r7, #12]
	uint32_t ticks = (SystemCoreClock / 1000);
 8000392:	4b0e      	ldr	r3, [pc, #56]	@ (80003cc <DelayMs+0x48>)
 8000394:	681b      	ldr	r3, [r3, #0]
 8000396:	4a0e      	ldr	r2, [pc, #56]	@ (80003d0 <DelayMs+0x4c>)
 8000398:	fba2 2303 	umull	r2, r3, r2, r3
 800039c:	099b      	lsrs	r3, r3, #6
 800039e:	60bb      	str	r3, [r7, #8]
	ms *= ticks;
 80003a0:	687b      	ldr	r3, [r7, #4]
 80003a2:	68ba      	ldr	r2, [r7, #8]
 80003a4:	fb02 f303 	mul.w	r3, r2, r3
 80003a8:	607b      	str	r3, [r7, #4]
	while ((DWT->CYCCNT - init_ticks) < ms);
 80003aa:	bf00      	nop
 80003ac:	4b06      	ldr	r3, [pc, #24]	@ (80003c8 <DelayMs+0x44>)
 80003ae:	685a      	ldr	r2, [r3, #4]
 80003b0:	68fb      	ldr	r3, [r7, #12]
 80003b2:	1ad2      	subs	r2, r2, r3
 80003b4:	687b      	ldr	r3, [r7, #4]
 80003b6:	429a      	cmp	r2, r3
 80003b8:	d3f8      	bcc.n	80003ac <DelayMs+0x28>
}
 80003ba:	bf00      	nop
 80003bc:	bf00      	nop
 80003be:	3714      	adds	r7, #20
 80003c0:	46bd      	mov	sp, r7
 80003c2:	bc80      	pop	{r7}
 80003c4:	4770      	bx	lr
 80003c6:	bf00      	nop
 80003c8:	e0001000 	.word	0xe0001000
 80003cc:	20000000 	.word	0x20000000
 80003d0:	10624dd3 	.word	0x10624dd3

080003d4 <I2CStart>:
 *  Created on: Apr 3, 2024
 *      Author: yugandhar
 */
#include "i2c.h"

void I2CStart() {
 80003d4:	b480      	push	{r7}
 80003d6:	af00      	add	r7, sp, #0
    I2C1->CR1 |= I2C_CR1_START;
 80003d8:	4b08      	ldr	r3, [pc, #32]	@ (80003fc <I2CStart+0x28>)
 80003da:	681b      	ldr	r3, [r3, #0]
 80003dc:	4a07      	ldr	r2, [pc, #28]	@ (80003fc <I2CStart+0x28>)
 80003de:	f443 7380 	orr.w	r3, r3, #256	@ 0x100
 80003e2:	6013      	str	r3, [r2, #0]

    while((I2C1->SR1 & I2C_SR1_SB) == 0);
 80003e4:	bf00      	nop
 80003e6:	4b05      	ldr	r3, [pc, #20]	@ (80003fc <I2CStart+0x28>)
 80003e8:	695b      	ldr	r3, [r3, #20]
 80003ea:	f003 0301 	and.w	r3, r3, #1
 80003ee:	2b00      	cmp	r3, #0
 80003f0:	d0f9      	beq.n	80003e6 <I2CStart+0x12>
}
 80003f2:	bf00      	nop
 80003f4:	bf00      	nop
 80003f6:	46bd      	mov	sp, r7
 80003f8:	bc80      	pop	{r7}
 80003fa:	4770      	bx	lr
 80003fc:	40005400 	.word	0x40005400

08000400 <I2CRepeatStart>:

void I2CRepeatStart() {
 8000400:	b580      	push	{r7, lr}
 8000402:	af00      	add	r7, sp, #0
	I2CStart();
 8000404:	f7ff ffe6 	bl	80003d4 <I2CStart>
}
 8000408:	bf00      	nop
 800040a:	bd80      	pop	{r7, pc}

0800040c <I2CStop>:

void I2CStop() {
 800040c:	b480      	push	{r7}
 800040e:	af00      	add	r7, sp, #0
    I2C1->CR1 |= I2C_CR1_STOP;
 8000410:	4b08      	ldr	r3, [pc, #32]	@ (8000434 <I2CStop+0x28>)
 8000412:	681b      	ldr	r3, [r3, #0]
 8000414:	4a07      	ldr	r2, [pc, #28]	@ (8000434 <I2CStop+0x28>)
 8000416:	f443 7300 	orr.w	r3, r3, #512	@ 0x200
 800041a:	6013      	str	r3, [r2, #0]
    while(!(I2C1->SR2 & I2C_SR2_BUSY));
 800041c:	bf00      	nop
 800041e:	4b05      	ldr	r3, [pc, #20]	@ (8000434 <I2CStop+0x28>)
 8000420:	699b      	ldr	r3, [r3, #24]
 8000422:	f003 0302 	and.w	r3, r3, #2
 8000426:	2b00      	cmp	r3, #0
 8000428:	d0f9      	beq.n	800041e <I2CStop+0x12>
}
 800042a:	bf00      	nop
 800042c:	bf00      	nop
 800042e:	46bd      	mov	sp, r7
 8000430:	bc80      	pop	{r7}
 8000432:	4770      	bx	lr
 8000434:	40005400 	.word	0x40005400

08000438 <I2CSendSlaveAddress>:

void I2CSendSlaveAddress(uint8_t slaveaddr) {
 8000438:	b480      	push	{r7}
 800043a:	b083      	sub	sp, #12
 800043c:	af00      	add	r7, sp, #0
 800043e:	4603      	mov	r3, r0
 8000440:	71fb      	strb	r3, [r7, #7]
    // send slaveaddr
    // wait until address is sent
    I2C1->DR = slaveaddr;
 8000442:	4a09      	ldr	r2, [pc, #36]	@ (8000468 <I2CSendSlaveAddress+0x30>)
 8000444:	79fb      	ldrb	r3, [r7, #7]
 8000446:	6113      	str	r3, [r2, #16]
    while (!(I2C1->SR1 & I2C_SR1_ADDR));
 8000448:	bf00      	nop
 800044a:	4b07      	ldr	r3, [pc, #28]	@ (8000468 <I2CSendSlaveAddress+0x30>)
 800044c:	695b      	ldr	r3, [r3, #20]
 800044e:	f003 0302 	and.w	r3, r3, #2
 8000452:	2b00      	cmp	r3, #0
 8000454:	d0f9      	beq.n	800044a <I2CSendSlaveAddress+0x12>
    // dummy read to clear flags
    (void)I2C1->SR1;
 8000456:	4b04      	ldr	r3, [pc, #16]	@ (8000468 <I2CSendSlaveAddress+0x30>)
 8000458:	695b      	ldr	r3, [r3, #20]
    (void)I2C1->SR2; // clear addr condition
 800045a:	4b03      	ldr	r3, [pc, #12]	@ (8000468 <I2CSendSlaveAddress+0x30>)
 800045c:	699b      	ldr	r3, [r3, #24]
}
 800045e:	bf00      	nop
 8000460:	370c      	adds	r7, #12
 8000462:	46bd      	mov	sp, r7
 8000464:	bc80      	pop	{r7}
 8000466:	4770      	bx	lr
 8000468:	40005400 	.word	0x40005400

0800046c <I2CSendData>:

void I2CSendData(uint8_t val) {
 800046c:	b480      	push	{r7}
 800046e:	b083      	sub	sp, #12
 8000470:	af00      	add	r7, sp, #0
 8000472:	4603      	mov	r3, r0
 8000474:	71fb      	strb	r3, [r7, #7]
    // send data in write mode
    // wait until address is sent
    while (!(I2C1->SR1 & I2C_SR1_TXE));
 8000476:	bf00      	nop
 8000478:	4b0a      	ldr	r3, [pc, #40]	@ (80004a4 <I2CSendData+0x38>)
 800047a:	695b      	ldr	r3, [r3, #20]
 800047c:	f003 0380 	and.w	r3, r3, #128	@ 0x80
 8000480:	2b00      	cmp	r3, #0
 8000482:	d0f9      	beq.n	8000478 <I2CSendData+0xc>
    // write dr and clear flags
    I2C1->DR = val;
 8000484:	4a07      	ldr	r2, [pc, #28]	@ (80004a4 <I2CSendData+0x38>)
 8000486:	79fb      	ldrb	r3, [r7, #7]
 8000488:	6113      	str	r3, [r2, #16]
    // wait until data byte is transferred
    while (!(I2C1->SR1 & I2C_SR1_BTF));
 800048a:	bf00      	nop
 800048c:	4b05      	ldr	r3, [pc, #20]	@ (80004a4 <I2CSendData+0x38>)
 800048e:	695b      	ldr	r3, [r3, #20]
 8000490:	f003 0304 	and.w	r3, r3, #4
 8000494:	2b00      	cmp	r3, #0
 8000496:	d0f9      	beq.n	800048c <I2CSendData+0x20>
}
 8000498:	bf00      	nop
 800049a:	bf00      	nop
 800049c:	370c      	adds	r7, #12
 800049e:	46bd      	mov	sp, r7
 80004a0:	bc80      	pop	{r7}
 80004a2:	4770      	bx	lr
 80004a4:	40005400 	.word	0x40005400

080004a8 <I2CRecvDataAck>:

uint8_t I2CRecvDataAck(void) {
 80004a8:	b480      	push	{r7}
 80004aa:	b083      	sub	sp, #12
 80004ac:	af00      	add	r7, sp, #0
	uint8_t val;
	I2C1->CR1 |= I2C_CR1_ACK | I2C_CR1_POS;
 80004ae:	4b0b      	ldr	r3, [pc, #44]	@ (80004dc <I2CRecvDataAck+0x34>)
 80004b0:	681b      	ldr	r3, [r3, #0]
 80004b2:	4a0a      	ldr	r2, [pc, #40]	@ (80004dc <I2CRecvDataAck+0x34>)
 80004b4:	f443 6340 	orr.w	r3, r3, #3072	@ 0xc00
 80004b8:	6013      	str	r3, [r2, #0]
	// wait until receive buffer is not empty
	while (!(I2C1->SR1 & I2C_SR1_RXNE));
 80004ba:	bf00      	nop
 80004bc:	4b07      	ldr	r3, [pc, #28]	@ (80004dc <I2CRecvDataAck+0x34>)
 80004be:	695b      	ldr	r3, [r3, #20]
 80004c0:	f003 0340 	and.w	r3, r3, #64	@ 0x40
 80004c4:	2b00      	cmp	r3, #0
 80004c6:	d0f9      	beq.n	80004bc <I2CRecvDataAck+0x14>
	// read content and clear flags
	val = (uint8_t)I2C1->DR;
 80004c8:	4b04      	ldr	r3, [pc, #16]	@ (80004dc <I2CRecvDataAck+0x34>)
 80004ca:	691b      	ldr	r3, [r3, #16]
 80004cc:	71fb      	strb	r3, [r7, #7]
	return val;
 80004ce:	79fb      	ldrb	r3, [r7, #7]
}
 80004d0:	4618      	mov	r0, r3
 80004d2:	370c      	adds	r7, #12
 80004d4:	46bd      	mov	sp, r7
 80004d6:	bc80      	pop	{r7}
 80004d8:	4770      	bx	lr
 80004da:	bf00      	nop
 80004dc:	40005400 	.word	0x40005400

080004e0 <I2CRecvDataNAck>:

uint8_t I2CRecvDataNAck(void) {
 80004e0:	b480      	push	{r7}
 80004e2:	b083      	sub	sp, #12
 80004e4:	af00      	add	r7, sp, #0
	uint8_t val;
	I2C1->CR1 &= ~(I2C_CR1_ACK | I2C_CR1_POS);
 80004e6:	4b0b      	ldr	r3, [pc, #44]	@ (8000514 <I2CRecvDataNAck+0x34>)
 80004e8:	681b      	ldr	r3, [r3, #0]
 80004ea:	4a0a      	ldr	r2, [pc, #40]	@ (8000514 <I2CRecvDataNAck+0x34>)
 80004ec:	f423 6340 	bic.w	r3, r3, #3072	@ 0xc00
 80004f0:	6013      	str	r3, [r2, #0]
	// wait until receive buffer is not empty
	while (!(I2C1->SR1 & I2C_SR1_RXNE));
 80004f2:	bf00      	nop
 80004f4:	4b07      	ldr	r3, [pc, #28]	@ (8000514 <I2CRecvDataNAck+0x34>)
 80004f6:	695b      	ldr	r3, [r3, #20]
 80004f8:	f003 0340 	and.w	r3, r3, #64	@ 0x40
 80004fc:	2b00      	cmp	r3, #0
 80004fe:	d0f9      	beq.n	80004f4 <I2CRecvDataNAck+0x14>
	// read content and clear flags
	val = I2C1->DR;
 8000500:	4b04      	ldr	r3, [pc, #16]	@ (8000514 <I2CRecvDataNAck+0x34>)
 8000502:	691b      	ldr	r3, [r3, #16]
 8000504:	71fb      	strb	r3, [r7, #7]
	return val;
 8000506:	79fb      	ldrb	r3, [r7, #7]
}
 8000508:	4618      	mov	r0, r3
 800050a:	370c      	adds	r7, #12
 800050c:	46bd      	mov	sp, r7
 800050e:	bc80      	pop	{r7}
 8000510:	4770      	bx	lr
 8000512:	bf00      	nop
 8000514:	40005400 	.word	0x40005400

08000518 <I2CIsDeviceReady>:

int I2CIsDeviceReady(uint8_t slaveaddr) {
 8000518:	b480      	push	{r7}
 800051a:	b083      	sub	sp, #12
 800051c:	af00      	add	r7, sp, #0
 800051e:	4603      	mov	r3, r0
 8000520:	71fb      	strb	r3, [r7, #7]
    // send slaveaddr of write
	slaveaddr &= ~BV(0);
 8000522:	79fb      	ldrb	r3, [r7, #7]
 8000524:	f023 0301 	bic.w	r3, r3, #1
 8000528:	71fb      	strb	r3, [r7, #7]
    // wait until address is sent
    I2C1->DR = slaveaddr;
 800052a:	4a09      	ldr	r2, [pc, #36]	@ (8000550 <I2CIsDeviceReady+0x38>)
 800052c:	79fb      	ldrb	r3, [r7, #7]
 800052e:	6113      	str	r3, [r2, #16]
    while (!(I2C1->SR1 & I2C_SR1_ADDR));
 8000530:	bf00      	nop
 8000532:	4b07      	ldr	r3, [pc, #28]	@ (8000550 <I2CIsDeviceReady+0x38>)
 8000534:	695b      	ldr	r3, [r3, #20]
 8000536:	f003 0302 	and.w	r3, r3, #2
 800053a:	2b00      	cmp	r3, #0
 800053c:	d0f9      	beq.n	8000532 <I2CIsDeviceReady+0x1a>
    // dummy read to clear flags
    (void)I2C1->SR2; // clear addr condition
 800053e:	4b04      	ldr	r3, [pc, #16]	@ (8000550 <I2CIsDeviceReady+0x38>)
 8000540:	699b      	ldr	r3, [r3, #24]
	return 1;
 8000542:	2301      	movs	r3, #1
}
 8000544:	4618      	mov	r0, r3
 8000546:	370c      	adds	r7, #12
 8000548:	46bd      	mov	sp, r7
 800054a:	bc80      	pop	{r7}
 800054c:	4770      	bx	lr
 800054e:	bf00      	nop
 8000550:	40005400 	.word	0x40005400

08000554 <I2CInit>:

void I2CInit() {
 8000554:	b580      	push	{r7, lr}
 8000556:	af00      	add	r7, sp, #0
    // enable GPIOB clock
	RCC->AHB1ENR |= RCC_AHB1ENR_GPIOBEN;
 8000558:	4b43      	ldr	r3, [pc, #268]	@ (8000668 <I2CInit+0x114>)
 800055a:	6b1b      	ldr	r3, [r3, #48]	@ 0x30
 800055c:	4a42      	ldr	r2, [pc, #264]	@ (8000668 <I2CInit+0x114>)
 800055e:	f043 0302 	orr.w	r3, r3, #2
 8000562:	6313      	str	r3, [r2, #48]	@ 0x30
	DelayMs(50);
 8000564:	2032      	movs	r0, #50	@ 0x32
 8000566:	f7ff ff0d 	bl	8000384 <DelayMs>

    // setup I2C pins
    RCC->AHB1ENR |= RCC_AHB1ENR_GPIOBEN;
 800056a:	4b3f      	ldr	r3, [pc, #252]	@ (8000668 <I2CInit+0x114>)
 800056c:	6b1b      	ldr	r3, [r3, #48]	@ 0x30
 800056e:	4a3e      	ldr	r2, [pc, #248]	@ (8000668 <I2CInit+0x114>)
 8000570:	f043 0302 	orr.w	r3, r3, #2
 8000574:	6313      	str	r3, [r2, #48]	@ 0x30
    GPIOB->MODER &= ~(3UL << I2C1_SCL*2); // PB6
 8000576:	4b3d      	ldr	r3, [pc, #244]	@ (800066c <I2CInit+0x118>)
 8000578:	681b      	ldr	r3, [r3, #0]
 800057a:	4a3c      	ldr	r2, [pc, #240]	@ (800066c <I2CInit+0x118>)
 800057c:	f423 5340 	bic.w	r3, r3, #12288	@ 0x3000
 8000580:	6013      	str	r3, [r2, #0]
    GPIOB->MODER |=  (2UL << I2C1_SCL*2); // AF
 8000582:	4b3a      	ldr	r3, [pc, #232]	@ (800066c <I2CInit+0x118>)
 8000584:	681b      	ldr	r3, [r3, #0]
 8000586:	4a39      	ldr	r2, [pc, #228]	@ (800066c <I2CInit+0x118>)
 8000588:	f443 5300 	orr.w	r3, r3, #8192	@ 0x2000
 800058c:	6013      	str	r3, [r2, #0]
    GPIOB->OTYPER |= (1UL << I2C1_SCL);   // open-drain
 800058e:	4b37      	ldr	r3, [pc, #220]	@ (800066c <I2CInit+0x118>)
 8000590:	685b      	ldr	r3, [r3, #4]
 8000592:	4a36      	ldr	r2, [pc, #216]	@ (800066c <I2CInit+0x118>)
 8000594:	f043 0340 	orr.w	r3, r3, #64	@ 0x40
 8000598:	6053      	str	r3, [r2, #4]
    GPIOB->PUPDR &= ~(3UL << I2C1_SCL*2); // no pull-up/down
 800059a:	4b34      	ldr	r3, [pc, #208]	@ (800066c <I2CInit+0x118>)
 800059c:	68db      	ldr	r3, [r3, #12]
 800059e:	4a33      	ldr	r2, [pc, #204]	@ (800066c <I2CInit+0x118>)
 80005a0:	f423 5340 	bic.w	r3, r3, #12288	@ 0x3000
 80005a4:	60d3      	str	r3, [r2, #12]
    GPIOB->MODER &= ~(3UL << I2C1_SDA*2); // PB7
 80005a6:	4b31      	ldr	r3, [pc, #196]	@ (800066c <I2CInit+0x118>)
 80005a8:	681b      	ldr	r3, [r3, #0]
 80005aa:	4a30      	ldr	r2, [pc, #192]	@ (800066c <I2CInit+0x118>)
 80005ac:	f423 4340 	bic.w	r3, r3, #49152	@ 0xc000
 80005b0:	6013      	str	r3, [r2, #0]
    GPIOB->MODER |=  (2UL << I2C1_SDA*2); // AF
 80005b2:	4b2e      	ldr	r3, [pc, #184]	@ (800066c <I2CInit+0x118>)
 80005b4:	681b      	ldr	r3, [r3, #0]
 80005b6:	4a2d      	ldr	r2, [pc, #180]	@ (800066c <I2CInit+0x118>)
 80005b8:	f443 4300 	orr.w	r3, r3, #32768	@ 0x8000
 80005bc:	6013      	str	r3, [r2, #0]
    GPIOB->OTYPER |= (1UL << I2C1_SDA);   // open-drain
 80005be:	4b2b      	ldr	r3, [pc, #172]	@ (800066c <I2CInit+0x118>)
 80005c0:	685b      	ldr	r3, [r3, #4]
 80005c2:	4a2a      	ldr	r2, [pc, #168]	@ (800066c <I2CInit+0x118>)
 80005c4:	f043 0380 	orr.w	r3, r3, #128	@ 0x80
 80005c8:	6053      	str	r3, [r2, #4]
    GPIOB->PUPDR &= ~(3UL << I2C1_SDA*2); // no pull-up/down
 80005ca:	4b28      	ldr	r3, [pc, #160]	@ (800066c <I2CInit+0x118>)
 80005cc:	68db      	ldr	r3, [r3, #12]
 80005ce:	4a27      	ldr	r2, [pc, #156]	@ (800066c <I2CInit+0x118>)
 80005d0:	f423 4340 	bic.w	r3, r3, #49152	@ 0xc000
 80005d4:	60d3      	str	r3, [r2, #12]

    // choose AF4 for I2C1 in Alternate Function registers
    GPIOB->AFR[0] |= (4 << GPIO_AFRL_AFSEL6_Pos); // for pin 6
 80005d6:	4b25      	ldr	r3, [pc, #148]	@ (800066c <I2CInit+0x118>)
 80005d8:	6a1b      	ldr	r3, [r3, #32]
 80005da:	4a24      	ldr	r2, [pc, #144]	@ (800066c <I2CInit+0x118>)
 80005dc:	f043 6380 	orr.w	r3, r3, #67108864	@ 0x4000000
 80005e0:	6213      	str	r3, [r2, #32]
    GPIOB->AFR[0] |= (4 << GPIO_AFRL_AFSEL7_Pos); // for pin 7
 80005e2:	4b22      	ldr	r3, [pc, #136]	@ (800066c <I2CInit+0x118>)
 80005e4:	6a1b      	ldr	r3, [r3, #32]
 80005e6:	4a21      	ldr	r2, [pc, #132]	@ (800066c <I2CInit+0x118>)
 80005e8:	f043 4380 	orr.w	r3, r3, #1073741824	@ 0x40000000
 80005ec:	6213      	str	r3, [r2, #32]

    // enable I2C clock
	RCC->APB1ENR |= RCC_APB1ENR_I2C1EN;
 80005ee:	4b1e      	ldr	r3, [pc, #120]	@ (8000668 <I2CInit+0x114>)
 80005f0:	6c1b      	ldr	r3, [r3, #64]	@ 0x40
 80005f2:	4a1d      	ldr	r2, [pc, #116]	@ (8000668 <I2CInit+0x114>)
 80005f4:	f443 1300 	orr.w	r3, r3, #2097152	@ 0x200000
 80005f8:	6413      	str	r3, [r2, #64]	@ 0x40
	DelayMs(50);
 80005fa:	2032      	movs	r0, #50	@ 0x32
 80005fc:	f7ff fec2 	bl	8000384 <DelayMs>
    // reset and clear reg
    I2C1->CR1 = I2C_CR1_SWRST;
 8000600:	4b1b      	ldr	r3, [pc, #108]	@ (8000670 <I2CInit+0x11c>)
 8000602:	f44f 4200 	mov.w	r2, #32768	@ 0x8000
 8000606:	601a      	str	r2, [r3, #0]
    I2C1->CR1 = 0;
 8000608:	4b19      	ldr	r3, [pc, #100]	@ (8000670 <I2CInit+0x11c>)
 800060a:	2200      	movs	r2, #0
 800060c:	601a      	str	r2, [r3, #0]

    I2C1->CR2 &= ~(I2C_CR2_ITERREN); // disable error interrupt
 800060e:	4b18      	ldr	r3, [pc, #96]	@ (8000670 <I2CInit+0x11c>)
 8000610:	685b      	ldr	r3, [r3, #4]
 8000612:	4a17      	ldr	r2, [pc, #92]	@ (8000670 <I2CInit+0x11c>)
 8000614:	f423 7380 	bic.w	r3, r3, #256	@ 0x100
 8000618:	6053      	str	r3, [r2, #4]
    I2C1->CCR &= ~(1 << I2C_CCR_FS_Pos); // standard mode (100 khz)
 800061a:	4b15      	ldr	r3, [pc, #84]	@ (8000670 <I2CInit+0x11c>)
 800061c:	69db      	ldr	r3, [r3, #28]
 800061e:	4a14      	ldr	r2, [pc, #80]	@ (8000670 <I2CInit+0x11c>)
 8000620:	f423 4300 	bic.w	r3, r3, #32768	@ 0x8000
 8000624:	61d3      	str	r3, [r2, #28]
    // Enable Ack
    I2C1->CR1 |= (1<<I2C_CR1_ACK_Pos);
 8000626:	4b12      	ldr	r3, [pc, #72]	@ (8000670 <I2CInit+0x11c>)
 8000628:	681b      	ldr	r3, [r3, #0]
 800062a:	4a11      	ldr	r2, [pc, #68]	@ (8000670 <I2CInit+0x11c>)
 800062c:	f443 6380 	orr.w	r3, r3, #1024	@ 0x400
 8000630:	6013      	str	r3, [r2, #0]
    // Thigh and Tlow needs to be 5us each

    // Let's pick fPCLK1 = 16Mhz, TPCLK1 = 1/16Mhz = 62.5ns
    // Thigh = CCR * TPCLK1 => 5us = CCR * 62.5ns
    // CCR = 80
    I2C1->CR2 |= (16 << I2C_CR2_FREQ_Pos); // 16Mhz PCLK
 8000632:	4b0f      	ldr	r3, [pc, #60]	@ (8000670 <I2CInit+0x11c>)
 8000634:	685b      	ldr	r3, [r3, #4]
 8000636:	4a0e      	ldr	r2, [pc, #56]	@ (8000670 <I2CInit+0x11c>)
 8000638:	f043 0310 	orr.w	r3, r3, #16
 800063c:	6053      	str	r3, [r2, #4]
    I2C1->CCR |= (80 << I2C_CCR_CCR_Pos);
 800063e:	4b0c      	ldr	r3, [pc, #48]	@ (8000670 <I2CInit+0x11c>)
 8000640:	69db      	ldr	r3, [r3, #28]
 8000642:	4a0b      	ldr	r2, [pc, #44]	@ (8000670 <I2CInit+0x11c>)
 8000644:	f043 0350 	orr.w	r3, r3, #80	@ 0x50
 8000648:	61d3      	str	r3, [r2, #28]
    // Maximum rise time.
    // Calculation is (maximum_rise_time / Tpclk) + 1
    // In SM mode maximum allowed SCL rise time is 1000ns
    // For TPCLK1 = 62.5ns => (1000ns / 62.5ns) + 1 = 16 + 1 = 17
    I2C1->TRISE |= (17 << I2C_TRISE_TRISE_Pos); // program Trise to 17 for 100khz
 800064a:	4b09      	ldr	r3, [pc, #36]	@ (8000670 <I2CInit+0x11c>)
 800064c:	6a1b      	ldr	r3, [r3, #32]
 800064e:	4a08      	ldr	r2, [pc, #32]	@ (8000670 <I2CInit+0x11c>)
 8000650:	f043 0311 	orr.w	r3, r3, #17
 8000654:	6213      	str	r3, [r2, #32]
    // Enable I2C
    I2C1->CR1 |= I2C_CR1_PE;
 8000656:	4b06      	ldr	r3, [pc, #24]	@ (8000670 <I2CInit+0x11c>)
 8000658:	681b      	ldr	r3, [r3, #0]
 800065a:	4a05      	ldr	r2, [pc, #20]	@ (8000670 <I2CInit+0x11c>)
 800065c:	f043 0301 	orr.w	r3, r3, #1
 8000660:	6013      	str	r3, [r2, #0]
}
 8000662:	bf00      	nop
 8000664:	bd80      	pop	{r7, pc}
 8000666:	bf00      	nop
 8000668:	40023800 	.word	0x40023800
 800066c:	40020400 	.word	0x40020400
 8000670:	40005400 	.word	0x40005400

08000674 <main>:
#if !defined(__SOFT_FP__) && defined(__ARM_FP)
  #warning "FPU is not initialized, but the project is compiling for an FPU. Please initialize the FPU before use."
#endif

int main(void)
{
 8000674:	b580      	push	{r7, lr}
 8000676:	b08a      	sub	sp, #40	@ 0x28
 8000678:	af00      	add	r7, sp, #0
	SystemInit();
 800067a:	f000 f87d 	bl	8000778 <SystemInit>
	EEPROM_Init();
 800067e:	f7ff fdff 	bl	8000280 <EEPROM_Init>
	int ch;
	char str[32];
	UartInit(BAUD_9600);
 8000682:	f44f 5016 	mov.w	r0, #9600	@ 0x2580
 8000686:	f000 f8ad 	bl	80007e4 <UartInit>
	UartGets(str);
 800068a:	1d3b      	adds	r3, r7, #4
 800068c:	4618      	mov	r0, r3
 800068e:	f000 f95f 	bl	8000950 <UartGets>

do{
	UartPuts("Enter your choice \r n");
 8000692:	481a      	ldr	r0, [pc, #104]	@ (80006fc <main+0x88>)
 8000694:	f000 f940 	bl	8000918 <UartPuts>
	UartPuts("write string \r\n");
 8000698:	4819      	ldr	r0, [pc, #100]	@ (8000700 <main+0x8c>)
 800069a:	f000 f93d 	bl	8000918 <UartPuts>
	UartPuts("read string \r\n");
 800069e:	4819      	ldr	r0, [pc, #100]	@ (8000704 <main+0x90>)
 80006a0:	f000 f93a 	bl	8000918 <UartPuts>
	//UartGets(str);
	sscanf(str, "%d", &ch);
 80006a4:	f107 0224 	add.w	r2, r7, #36	@ 0x24
 80006a8:	1d3b      	adds	r3, r7, #4
 80006aa:	4917      	ldr	r1, [pc, #92]	@ (8000708 <main+0x94>)
 80006ac:	4618      	mov	r0, r3
 80006ae:	f000 f99f 	bl	80009f0 <siscanf>

	switch(ch)
 80006b2:	6a7b      	ldr	r3, [r7, #36]	@ 0x24
 80006b4:	2b01      	cmp	r3, #1
 80006b6:	d002      	beq.n	80006be <main+0x4a>
 80006b8:	2b02      	cmp	r3, #2
 80006ba:	d00b      	beq.n	80006d4 <main+0x60>
 80006bc:	e015      	b.n	80006ea <main+0x76>
	{
	case 1:
		UartGets(str);
 80006be:	1d3b      	adds	r3, r7, #4
 80006c0:	4618      	mov	r0, r3
 80006c2:	f000 f945 	bl	8000950 <UartGets>
		EEPROM_Write(0x0020,(uint8_t *) str,16);
 80006c6:	1d3b      	adds	r3, r7, #4
 80006c8:	2210      	movs	r2, #16
 80006ca:	4619      	mov	r1, r3
 80006cc:	2020      	movs	r0, #32
 80006ce:	f7ff fde8 	bl	80002a2 <EEPROM_Write>
		break;
 80006d2:	e00a      	b.n	80006ea <main+0x76>
	case 2:
		EEPROM_Read(0x0020,(uint8_t*)str,16);
 80006d4:	1d3b      	adds	r3, r7, #4
 80006d6:	2210      	movs	r2, #16
 80006d8:	4619      	mov	r1, r3
 80006da:	2020      	movs	r0, #32
 80006dc:	f7ff fe13 	bl	8000306 <EEPROM_Read>
		UartPuts(str);
 80006e0:	1d3b      	adds	r3, r7, #4
 80006e2:	4618      	mov	r0, r3
 80006e4:	f000 f918 	bl	8000918 <UartPuts>
		break;
 80006e8:	bf00      	nop
	}

}while(ch !=0);
 80006ea:	6a7b      	ldr	r3, [r7, #36]	@ 0x24
 80006ec:	2b00      	cmp	r3, #0
 80006ee:	d1d0      	bne.n	8000692 <main+0x1e>
	return 0;
 80006f0:	2300      	movs	r3, #0
}
 80006f2:	4618      	mov	r0, r3
 80006f4:	3728      	adds	r7, #40	@ 0x28
 80006f6:	46bd      	mov	sp, r7
 80006f8:	bd80      	pop	{r7, pc}
 80006fa:	bf00      	nop
 80006fc:	08001644 	.word	0x08001644
 8000700:	0800165c 	.word	0x0800165c
 8000704:	0800166c 	.word	0x0800166c
 8000708:	0800167c 	.word	0x0800167c

0800070c <_sbrk>:
 *
 * @param incr Memory size
 * @return Pointer to allocated memory
 */
void *_sbrk(ptrdiff_t incr)
{
 800070c:	b580      	push	{r7, lr}
 800070e:	b086      	sub	sp, #24
 8000710:	af00      	add	r7, sp, #0
 8000712:	6078      	str	r0, [r7, #4]
  extern uint8_t _end; /* Symbol defined in the linker script */
  extern uint8_t _estack; /* Symbol defined in the linker script */
  extern uint32_t _Min_Stack_Size; /* Symbol defined in the linker script */
  const uint32_t stack_limit = (uint32_t)&_estack - (uint32_t)&_Min_Stack_Size;
 8000714:	4a14      	ldr	r2, [pc, #80]	@ (8000768 <_sbrk+0x5c>)
 8000716:	4b15      	ldr	r3, [pc, #84]	@ (800076c <_sbrk+0x60>)
 8000718:	1ad3      	subs	r3, r2, r3
 800071a:	617b      	str	r3, [r7, #20]
  const uint8_t *max_heap = (uint8_t *)stack_limit;
 800071c:	697b      	ldr	r3, [r7, #20]
 800071e:	613b      	str	r3, [r7, #16]
  uint8_t *prev_heap_end;

  /* Initialize heap end at first call */
  if (NULL == __sbrk_heap_end)
 8000720:	4b13      	ldr	r3, [pc, #76]	@ (8000770 <_sbrk+0x64>)
 8000722:	681b      	ldr	r3, [r3, #0]
 8000724:	2b00      	cmp	r3, #0
 8000726:	d102      	bne.n	800072e <_sbrk+0x22>
  {
    __sbrk_heap_end = &_end;
 8000728:	4b11      	ldr	r3, [pc, #68]	@ (8000770 <_sbrk+0x64>)
 800072a:	4a12      	ldr	r2, [pc, #72]	@ (8000774 <_sbrk+0x68>)
 800072c:	601a      	str	r2, [r3, #0]
  }

  /* Protect heap from growing into the reserved MSP stack */
  if (__sbrk_heap_end + incr > max_heap)
 800072e:	4b10      	ldr	r3, [pc, #64]	@ (8000770 <_sbrk+0x64>)
 8000730:	681a      	ldr	r2, [r3, #0]
 8000732:	687b      	ldr	r3, [r7, #4]
 8000734:	4413      	add	r3, r2
 8000736:	693a      	ldr	r2, [r7, #16]
 8000738:	429a      	cmp	r2, r3
 800073a:	d207      	bcs.n	800074c <_sbrk+0x40>
  {
    errno = ENOMEM;
 800073c:	f000 f984 	bl	8000a48 <__errno>
 8000740:	4603      	mov	r3, r0
 8000742:	220c      	movs	r2, #12
 8000744:	601a      	str	r2, [r3, #0]
    return (void *)-1;
 8000746:	f04f 33ff 	mov.w	r3, #4294967295	@ 0xffffffff
 800074a:	e009      	b.n	8000760 <_sbrk+0x54>
  }

  prev_heap_end = __sbrk_heap_end;
 800074c:	4b08      	ldr	r3, [pc, #32]	@ (8000770 <_sbrk+0x64>)
 800074e:	681b      	ldr	r3, [r3, #0]
 8000750:	60fb      	str	r3, [r7, #12]
  __sbrk_heap_end += incr;
 8000752:	4b07      	ldr	r3, [pc, #28]	@ (8000770 <_sbrk+0x64>)
 8000754:	681a      	ldr	r2, [r3, #0]
 8000756:	687b      	ldr	r3, [r7, #4]
 8000758:	4413      	add	r3, r2
 800075a:	4a05      	ldr	r2, [pc, #20]	@ (8000770 <_sbrk+0x64>)
 800075c:	6013      	str	r3, [r2, #0]

  return (void *)prev_heap_end;
 800075e:	68fb      	ldr	r3, [r7, #12]
}
 8000760:	4618      	mov	r0, r3
 8000762:	3718      	adds	r7, #24
 8000764:	46bd      	mov	sp, r7
 8000766:	bd80      	pop	{r7, pc}
 8000768:	20020000 	.word	0x20020000
 800076c:	00000400 	.word	0x00000400
 8000770:	20000070 	.word	0x20000070
 8000774:	200001c0 	.word	0x200001c0

08000778 <SystemInit>:
  *         configuration.
  * @param  None
  * @retval None
  */
void SystemInit(void)
{
 8000778:	b580      	push	{r7, lr}
 800077a:	af00      	add	r7, sp, #0
  DWT_Init();
 800077c:	f000 f802 	bl	8000784 <DWT_Init>
}
 8000780:	bf00      	nop
 8000782:	bd80      	pop	{r7, pc}

08000784 <DWT_Init>:
}
#pragma GCC pop_options


uint32_t DWT_Init(void)
{
 8000784:	b480      	push	{r7}
 8000786:	af00      	add	r7, sp, #0
    /* Disable TRC */
    CoreDebug->DEMCR &= ~CoreDebug_DEMCR_TRCENA_Msk; // ~0x01000000;
 8000788:	4b14      	ldr	r3, [pc, #80]	@ (80007dc <DWT_Init+0x58>)
 800078a:	68db      	ldr	r3, [r3, #12]
 800078c:	4a13      	ldr	r2, [pc, #76]	@ (80007dc <DWT_Init+0x58>)
 800078e:	f023 7380 	bic.w	r3, r3, #16777216	@ 0x1000000
 8000792:	60d3      	str	r3, [r2, #12]
    /* Enable TRC */
    CoreDebug->DEMCR |=  CoreDebug_DEMCR_TRCENA_Msk; // 0x01000000;
 8000794:	4b11      	ldr	r3, [pc, #68]	@ (80007dc <DWT_Init+0x58>)
 8000796:	68db      	ldr	r3, [r3, #12]
 8000798:	4a10      	ldr	r2, [pc, #64]	@ (80007dc <DWT_Init+0x58>)
 800079a:	f043 7380 	orr.w	r3, r3, #16777216	@ 0x1000000
 800079e:	60d3      	str	r3, [r2, #12]
    /* Disable clock cycle counter */
    DWT->CTRL &= ~DWT_CTRL_CYCCNTENA_Msk; //~0x00000001;
 80007a0:	4b0f      	ldr	r3, [pc, #60]	@ (80007e0 <DWT_Init+0x5c>)
 80007a2:	681b      	ldr	r3, [r3, #0]
 80007a4:	4a0e      	ldr	r2, [pc, #56]	@ (80007e0 <DWT_Init+0x5c>)
 80007a6:	f023 0301 	bic.w	r3, r3, #1
 80007aa:	6013      	str	r3, [r2, #0]
    /* Enable  clock cycle counter */
    DWT->CTRL |=  DWT_CTRL_CYCCNTENA_Msk; //0x00000001;
 80007ac:	4b0c      	ldr	r3, [pc, #48]	@ (80007e0 <DWT_Init+0x5c>)
 80007ae:	681b      	ldr	r3, [r3, #0]
 80007b0:	4a0b      	ldr	r2, [pc, #44]	@ (80007e0 <DWT_Init+0x5c>)
 80007b2:	f043 0301 	orr.w	r3, r3, #1
 80007b6:	6013      	str	r3, [r2, #0]
    /* Reset the clock cycle counter value */
    DWT->CYCCNT = 0;
 80007b8:	4b09      	ldr	r3, [pc, #36]	@ (80007e0 <DWT_Init+0x5c>)
 80007ba:	2200      	movs	r2, #0
 80007bc:	605a      	str	r2, [r3, #4]
    /* 3 NO OPERATION instructions */
    __ASM volatile ("NOP");
 80007be:	bf00      	nop
    __ASM volatile ("NOP");
 80007c0:	bf00      	nop
    __ASM volatile ("NOP");
 80007c2:	bf00      	nop
    /* Check if clock cycle counter has started: 0 on success */
    return !(DWT->CYCCNT);
 80007c4:	4b06      	ldr	r3, [pc, #24]	@ (80007e0 <DWT_Init+0x5c>)
 80007c6:	685b      	ldr	r3, [r3, #4]
 80007c8:	2b00      	cmp	r3, #0
 80007ca:	bf0c      	ite	eq
 80007cc:	2301      	moveq	r3, #1
 80007ce:	2300      	movne	r3, #0
 80007d0:	b2db      	uxtb	r3, r3
}
 80007d2:	4618      	mov	r0, r3
 80007d4:	46bd      	mov	sp, r7
 80007d6:	bc80      	pop	{r7}
 80007d8:	4770      	bx	lr
 80007da:	bf00      	nop
 80007dc:	e000edf0 	.word	0xe000edf0
 80007e0:	e0001000 	.word	0xe0001000

080007e4 <UartInit>:

#define TX_PIN	2
#define RX_PIN	3
#define USART_ALT_FN	7

void UartInit(uint32_t baud) {
 80007e4:	b480      	push	{r7}
 80007e6:	b083      	sub	sp, #12
 80007e8:	af00      	add	r7, sp, #0
 80007ea:	6078      	str	r0, [r7, #4]
	// UART GPIO Init -- PA.2 (Tx) and PA.3 (Rx)
	// enable clock
	RCC->AHB1ENR |= BV(RCC_AHB1ENR_GPIOAEN_Pos);
 80007ec:	4b31      	ldr	r3, [pc, #196]	@ (80008b4 <UartInit+0xd0>)
 80007ee:	6b1b      	ldr	r3, [r3, #48]	@ 0x30
 80007f0:	4a30      	ldr	r2, [pc, #192]	@ (80008b4 <UartInit+0xd0>)
 80007f2:	f043 0301 	orr.w	r3, r3, #1
 80007f6:	6313      	str	r3, [r2, #48]	@ 0x30
	//	alt fn = 0111 = 7 (Uart Tx and Rx)
	GPIOA->AFR[0] |= ((USART_ALT_FN << GPIO_AFRL_AFSEL3_Pos) | (USART_ALT_FN << GPIO_AFRL_AFSEL2_Pos));
 80007f8:	4b2f      	ldr	r3, [pc, #188]	@ (80008b8 <UartInit+0xd4>)
 80007fa:	6a1b      	ldr	r3, [r3, #32]
 80007fc:	4a2e      	ldr	r2, [pc, #184]	@ (80008b8 <UartInit+0xd4>)
 80007fe:	f443 43ee 	orr.w	r3, r3, #30464	@ 0x7700
 8000802:	6213      	str	r3, [r2, #32]
	// 	mode=10 (alt fn), speed=00 (low), pupdr=00 (none), typer=0 (push-pull)
	GPIOA->MODER |= (BV(TX_PIN * 2 + 1) | BV(RX_PIN * 2 + 1));
 8000804:	4b2c      	ldr	r3, [pc, #176]	@ (80008b8 <UartInit+0xd4>)
 8000806:	681b      	ldr	r3, [r3, #0]
 8000808:	4a2b      	ldr	r2, [pc, #172]	@ (80008b8 <UartInit+0xd4>)
 800080a:	f043 03a0 	orr.w	r3, r3, #160	@ 0xa0
 800080e:	6013      	str	r3, [r2, #0]
	GPIOA->MODER &= ~(BV(TX_PIN * 2) | BV(RX_PIN * 2));
 8000810:	4b29      	ldr	r3, [pc, #164]	@ (80008b8 <UartInit+0xd4>)
 8000812:	681b      	ldr	r3, [r3, #0]
 8000814:	4a28      	ldr	r2, [pc, #160]	@ (80008b8 <UartInit+0xd4>)
 8000816:	f023 0350 	bic.w	r3, r3, #80	@ 0x50
 800081a:	6013      	str	r3, [r2, #0]
	GPIOA->OSPEEDR &= ~(BV(TX_PIN * 2) | BV(TX_PIN * 2 + 1) | BV(RX_PIN * 2) | BV(RX_PIN * 2 + 1));
 800081c:	4b26      	ldr	r3, [pc, #152]	@ (80008b8 <UartInit+0xd4>)
 800081e:	689b      	ldr	r3, [r3, #8]
 8000820:	4a25      	ldr	r2, [pc, #148]	@ (80008b8 <UartInit+0xd4>)
 8000822:	f023 03f0 	bic.w	r3, r3, #240	@ 0xf0
 8000826:	6093      	str	r3, [r2, #8]
	GPIOA->PUPDR &= ~(BV(TX_PIN * 2) | BV(TX_PIN * 2 + 1) | BV(RX_PIN * 2) | BV(RX_PIN * 2 + 1));
 8000828:	4b23      	ldr	r3, [pc, #140]	@ (80008b8 <UartInit+0xd4>)
 800082a:	68db      	ldr	r3, [r3, #12]
 800082c:	4a22      	ldr	r2, [pc, #136]	@ (80008b8 <UartInit+0xd4>)
 800082e:	f023 03f0 	bic.w	r3, r3, #240	@ 0xf0
 8000832:	60d3      	str	r3, [r2, #12]
	GPIOA->OTYPER &= ~(BV(TX_PIN) | BV(RX_PIN));
 8000834:	4b20      	ldr	r3, [pc, #128]	@ (80008b8 <UartInit+0xd4>)
 8000836:	685b      	ldr	r3, [r3, #4]
 8000838:	4a1f      	ldr	r2, [pc, #124]	@ (80008b8 <UartInit+0xd4>)
 800083a:	f023 030c 	bic.w	r3, r3, #12
 800083e:	6053      	str	r3, [r2, #4]

	// UART Config
	// enable uart clock
	RCC->APB1ENR |= BV(RCC_APB1ENR_USART2EN_Pos);
 8000840:	4b1c      	ldr	r3, [pc, #112]	@ (80008b4 <UartInit+0xd0>)
 8000842:	6c1b      	ldr	r3, [r3, #64]	@ 0x40
 8000844:	4a1b      	ldr	r2, [pc, #108]	@ (80008b4 <UartInit+0xd0>)
 8000846:	f443 3300 	orr.w	r3, r3, #131072	@ 0x20000
 800084a:	6413      	str	r3, [r2, #64]	@ 0x40
	// tx en (TE=1), rx en (RE=1), wordlen=8 (M=0), OVER8=0, disable parity (PCE=0)
	USART2->CR1 = BV(USART_CR1_TE_Pos) | BV(USART_CR1_RE_Pos);
 800084c:	4b1b      	ldr	r3, [pc, #108]	@ (80008bc <UartInit+0xd8>)
 800084e:	220c      	movs	r2, #12
 8000850:	60da      	str	r2, [r3, #12]
	// 1 stop bit (STOP=00), disable clock (CLKEN=0)
	USART2->CR2 = 0x00000000;
 8000852:	4b1a      	ldr	r3, [pc, #104]	@ (80008bc <UartInit+0xd8>)
 8000854:	2200      	movs	r2, #0
 8000856:	611a      	str	r2, [r3, #16]
	// no hw control, no irda, no dma, no interupts
	USART2->CR3 = 0x00000000;
 8000858:	4b18      	ldr	r3, [pc, #96]	@ (80008bc <UartInit+0xd8>)
 800085a:	2200      	movs	r2, #0
 800085c:	615a      	str	r2, [r3, #20]
	// set BRR for given baud rate
	switch(baud) {
 800085e:	687b      	ldr	r3, [r7, #4]
 8000860:	f5b3 3fe1 	cmp.w	r3, #115200	@ 0x1c200
 8000864:	d016      	beq.n	8000894 <UartInit+0xb0>
 8000866:	687b      	ldr	r3, [r7, #4]
 8000868:	f5b3 3fe1 	cmp.w	r3, #115200	@ 0x1c200
 800086c:	d816      	bhi.n	800089c <UartInit+0xb8>
 800086e:	687b      	ldr	r3, [r7, #4]
 8000870:	f5b3 5f16 	cmp.w	r3, #9600	@ 0x2580
 8000874:	d004      	beq.n	8000880 <UartInit+0x9c>
 8000876:	687b      	ldr	r3, [r7, #4]
 8000878:	f5b3 4f16 	cmp.w	r3, #38400	@ 0x9600
 800087c:	d005      	beq.n	800088a <UartInit+0xa6>
 800087e:	e00d      	b.n	800089c <UartInit+0xb8>
		case BAUD_9600:
			USART2->BRR = BAUD_BRR_9600;
 8000880:	4b0e      	ldr	r3, [pc, #56]	@ (80008bc <UartInit+0xd8>)
 8000882:	f240 6283 	movw	r2, #1667	@ 0x683
 8000886:	609a      	str	r2, [r3, #8]
			break;
 8000888:	e008      	b.n	800089c <UartInit+0xb8>
		case BAUD_38400:
			USART2->BRR = BAUD_BRR_38400;
 800088a:	4b0c      	ldr	r3, [pc, #48]	@ (80008bc <UartInit+0xd8>)
 800088c:	f240 12a1 	movw	r2, #417	@ 0x1a1
 8000890:	609a      	str	r2, [r3, #8]
			break;
 8000892:	e003      	b.n	800089c <UartInit+0xb8>
		case BAUD_115200:
			USART2->BRR = BAUD_BRR_115200;
 8000894:	4b09      	ldr	r3, [pc, #36]	@ (80008bc <UartInit+0xd8>)
 8000896:	228b      	movs	r2, #139	@ 0x8b
 8000898:	609a      	str	r2, [r3, #8]
			break;
 800089a:	bf00      	nop
	}
	// uart enable (UE=1)
	USART2->CR1 |= BV(USART_CR1_UE_Pos);
 800089c:	4b07      	ldr	r3, [pc, #28]	@ (80008bc <UartInit+0xd8>)
 800089e:	68db      	ldr	r3, [r3, #12]
 80008a0:	4a06      	ldr	r2, [pc, #24]	@ (80008bc <UartInit+0xd8>)
 80008a2:	f443 5300 	orr.w	r3, r3, #8192	@ 0x2000
 80008a6:	60d3      	str	r3, [r2, #12]
}
 80008a8:	bf00      	nop
 80008aa:	370c      	adds	r7, #12
 80008ac:	46bd      	mov	sp, r7
 80008ae:	bc80      	pop	{r7}
 80008b0:	4770      	bx	lr
 80008b2:	bf00      	nop
 80008b4:	40023800 	.word	0x40023800
 80008b8:	40020000 	.word	0x40020000
 80008bc:	40004400 	.word	0x40004400

080008c0 <UartPutch>:

void UartPutch(uint8_t ch) {
 80008c0:	b480      	push	{r7}
 80008c2:	b083      	sub	sp, #12
 80008c4:	af00      	add	r7, sp, #0
 80008c6:	4603      	mov	r3, r0
 80008c8:	71fb      	strb	r3, [r7, #7]
	// wait until TDR is empty (i.e. prev byte transmitted)
	while((USART2->SR & BV(USART_SR_TXE_Pos)) == 0)
 80008ca:	bf00      	nop
 80008cc:	4b06      	ldr	r3, [pc, #24]	@ (80008e8 <UartPutch+0x28>)
 80008ce:	681b      	ldr	r3, [r3, #0]
 80008d0:	f003 0380 	and.w	r3, r3, #128	@ 0x80
 80008d4:	2b00      	cmp	r3, #0
 80008d6:	d0f9      	beq.n	80008cc <UartPutch+0xc>
		;
	// write new byte in TDR
	USART2->DR = ch;
 80008d8:	4a03      	ldr	r2, [pc, #12]	@ (80008e8 <UartPutch+0x28>)
 80008da:	79fb      	ldrb	r3, [r7, #7]
 80008dc:	6053      	str	r3, [r2, #4]
}
 80008de:	bf00      	nop
 80008e0:	370c      	adds	r7, #12
 80008e2:	46bd      	mov	sp, r7
 80008e4:	bc80      	pop	{r7}
 80008e6:	4770      	bx	lr
 80008e8:	40004400 	.word	0x40004400

080008ec <UartGetch>:

uint8_t UartGetch(void) {
 80008ec:	b480      	push	{r7}
 80008ee:	b083      	sub	sp, #12
 80008f0:	af00      	add	r7, sp, #0
	// wait until RDR is not empty (i.e. new byte received)
	while((USART2->SR & BV(USART_SR_RXNE_Pos)) == 0)
 80008f2:	bf00      	nop
 80008f4:	4b07      	ldr	r3, [pc, #28]	@ (8000914 <UartGetch+0x28>)
 80008f6:	681b      	ldr	r3, [r3, #0]
 80008f8:	f003 0320 	and.w	r3, r3, #32
 80008fc:	2b00      	cmp	r3, #0
 80008fe:	d0f9      	beq.n	80008f4 <UartGetch+0x8>
		;
	// read received byte from RDR
	char ch = USART2->DR;
 8000900:	4b04      	ldr	r3, [pc, #16]	@ (8000914 <UartGetch+0x28>)
 8000902:	685b      	ldr	r3, [r3, #4]
 8000904:	71fb      	strb	r3, [r7, #7]
	return ch;
 8000906:	79fb      	ldrb	r3, [r7, #7]
}
 8000908:	4618      	mov	r0, r3
 800090a:	370c      	adds	r7, #12
 800090c:	46bd      	mov	sp, r7
 800090e:	bc80      	pop	{r7}
 8000910:	4770      	bx	lr
 8000912:	bf00      	nop
 8000914:	40004400 	.word	0x40004400

08000918 <UartPuts>:

void UartPuts(char str[]) {
 8000918:	b580      	push	{r7, lr}
 800091a:	b084      	sub	sp, #16
 800091c:	af00      	add	r7, sp, #0
 800091e:	6078      	str	r0, [r7, #4]
	int i;
	for(i=0; str[i]!='\0'; i++)
 8000920:	2300      	movs	r3, #0
 8000922:	60fb      	str	r3, [r7, #12]
 8000924:	e009      	b.n	800093a <UartPuts+0x22>
		UartPutch(str[i]);
 8000926:	68fb      	ldr	r3, [r7, #12]
 8000928:	687a      	ldr	r2, [r7, #4]
 800092a:	4413      	add	r3, r2
 800092c:	781b      	ldrb	r3, [r3, #0]
 800092e:	4618      	mov	r0, r3
 8000930:	f7ff ffc6 	bl	80008c0 <UartPutch>
	for(i=0; str[i]!='\0'; i++)
 8000934:	68fb      	ldr	r3, [r7, #12]
 8000936:	3301      	adds	r3, #1
 8000938:	60fb      	str	r3, [r7, #12]
 800093a:	68fb      	ldr	r3, [r7, #12]
 800093c:	687a      	ldr	r2, [r7, #4]
 800093e:	4413      	add	r3, r2
 8000940:	781b      	ldrb	r3, [r3, #0]
 8000942:	2b00      	cmp	r3, #0
 8000944:	d1ef      	bne.n	8000926 <UartPuts+0xe>
}
 8000946:	bf00      	nop
 8000948:	bf00      	nop
 800094a:	3710      	adds	r7, #16
 800094c:	46bd      	mov	sp, r7
 800094e:	bd80      	pop	{r7, pc}

08000950 <UartGets>:

void UartGets(char str[]) {
 8000950:	b580      	push	{r7, lr}
 8000952:	b084      	sub	sp, #16
 8000954:	af00      	add	r7, sp, #0
 8000956:	6078      	str	r0, [r7, #4]
	int i=0;
 8000958:	2300      	movs	r3, #0
 800095a:	60fb      	str	r3, [r7, #12]
	char ch;
	do {
		ch = UartGetch();
 800095c:	f7ff ffc6 	bl	80008ec <UartGetch>
 8000960:	4603      	mov	r3, r0
 8000962:	72fb      	strb	r3, [r7, #11]
		str[i] = ch;
 8000964:	68fb      	ldr	r3, [r7, #12]
 8000966:	687a      	ldr	r2, [r7, #4]
 8000968:	4413      	add	r3, r2
 800096a:	7afa      	ldrb	r2, [r7, #11]
 800096c:	701a      	strb	r2, [r3, #0]
		i++;
 800096e:	68fb      	ldr	r3, [r7, #12]
 8000970:	3301      	adds	r3, #1
 8000972:	60fb      	str	r3, [r7, #12]
	} while(ch != '\r');
 8000974:	7afb      	ldrb	r3, [r7, #11]
 8000976:	2b0d      	cmp	r3, #13
 8000978:	d1f0      	bne.n	800095c <UartGets+0xc>
	str[i] = '\n';
 800097a:	68fb      	ldr	r3, [r7, #12]
 800097c:	687a      	ldr	r2, [r7, #4]
 800097e:	4413      	add	r3, r2
 8000980:	220a      	movs	r2, #10
 8000982:	701a      	strb	r2, [r3, #0]
	i++;
 8000984:	68fb      	ldr	r3, [r7, #12]
 8000986:	3301      	adds	r3, #1
 8000988:	60fb      	str	r3, [r7, #12]
	str[i] = '\0';
 800098a:	68fb      	ldr	r3, [r7, #12]
 800098c:	687a      	ldr	r2, [r7, #4]
 800098e:	4413      	add	r3, r2
 8000990:	2200      	movs	r2, #0
 8000992:	701a      	strb	r2, [r3, #0]
}
 8000994:	bf00      	nop
 8000996:	3710      	adds	r7, #16
 8000998:	46bd      	mov	sp, r7
 800099a:	bd80      	pop	{r7, pc}

0800099c <Reset_Handler>:

  .section .text.Reset_Handler
  .weak Reset_Handler
  .type Reset_Handler, %function
Reset_Handler:
  ldr   r0, =_estack
 800099c:	480d      	ldr	r0, [pc, #52]	@ (80009d4 <LoopForever+0x2>)
  mov   sp, r0          /* set stack pointer */
 800099e:	4685      	mov	sp, r0
/* Call the clock system initialization function.*/
  bl  SystemInit
 80009a0:	f7ff feea 	bl	8000778 <SystemInit>

/* Copy the data segment initializers from flash to SRAM */
  ldr r0, =_sdata
 80009a4:	480c      	ldr	r0, [pc, #48]	@ (80009d8 <LoopForever+0x6>)
  ldr r1, =_edata
 80009a6:	490d      	ldr	r1, [pc, #52]	@ (80009dc <LoopForever+0xa>)
  ldr r2, =_sidata
 80009a8:	4a0d      	ldr	r2, [pc, #52]	@ (80009e0 <LoopForever+0xe>)
  movs r3, #0
 80009aa:	2300      	movs	r3, #0
  b LoopCopyDataInit
 80009ac:	e002      	b.n	80009b4 <LoopCopyDataInit>

080009ae <CopyDataInit>:

CopyDataInit:
  ldr r4, [r2, r3]
 80009ae:	58d4      	ldr	r4, [r2, r3]
  str r4, [r0, r3]
 80009b0:	50c4      	str	r4, [r0, r3]
  adds r3, r3, #4
 80009b2:	3304      	adds	r3, #4

080009b4 <LoopCopyDataInit>:

LoopCopyDataInit:
  adds r4, r0, r3
 80009b4:	18c4      	adds	r4, r0, r3
  cmp r4, r1
 80009b6:	428c      	cmp	r4, r1
  bcc CopyDataInit
 80009b8:	d3f9      	bcc.n	80009ae <CopyDataInit>

/* Zero fill the bss segment. */
  ldr r2, =_sbss
 80009ba:	4a0a      	ldr	r2, [pc, #40]	@ (80009e4 <LoopForever+0x12>)
  ldr r4, =_ebss
 80009bc:	4c0a      	ldr	r4, [pc, #40]	@ (80009e8 <LoopForever+0x16>)
  movs r3, #0
 80009be:	2300      	movs	r3, #0
  b LoopFillZerobss
 80009c0:	e001      	b.n	80009c6 <LoopFillZerobss>

080009c2 <FillZerobss>:

FillZerobss:
  str  r3, [r2]
 80009c2:	6013      	str	r3, [r2, #0]
  adds r2, r2, #4
 80009c4:	3204      	adds	r2, #4

080009c6 <LoopFillZerobss>:

LoopFillZerobss:
  cmp r2, r4
 80009c6:	42a2      	cmp	r2, r4
  bcc FillZerobss
 80009c8:	d3fb      	bcc.n	80009c2 <FillZerobss>

/* Call static constructors */
  bl __libc_init_array
 80009ca:	f000 f843 	bl	8000a54 <__libc_init_array>
/* Call the application's entry point.*/
  bl main
 80009ce:	f7ff fe51 	bl	8000674 <main>

080009d2 <LoopForever>:

LoopForever:
  b LoopForever
 80009d2:	e7fe      	b.n	80009d2 <LoopForever>
  ldr   r0, =_estack
 80009d4:	20020000 	.word	0x20020000
  ldr r0, =_sdata
 80009d8:	20000000 	.word	0x20000000
  ldr r1, =_edata
 80009dc:	20000054 	.word	0x20000054
  ldr r2, =_sidata
 80009e0:	080017bc 	.word	0x080017bc
  ldr r2, =_sbss
 80009e4:	20000054 	.word	0x20000054
  ldr r4, =_ebss
 80009e8:	200001bc 	.word	0x200001bc

080009ec <ADC_IRQHandler>:
 * @retval : None
*/
  .section .text.Default_Handler,"ax",%progbits
Default_Handler:
Infinite_Loop:
  b Infinite_Loop
 80009ec:	e7fe      	b.n	80009ec <ADC_IRQHandler>
	...

080009f0 <siscanf>:
 80009f0:	b40e      	push	{r1, r2, r3}
 80009f2:	b530      	push	{r4, r5, lr}
 80009f4:	b09c      	sub	sp, #112	@ 0x70
 80009f6:	ac1f      	add	r4, sp, #124	@ 0x7c
 80009f8:	f44f 7201 	mov.w	r2, #516	@ 0x204
 80009fc:	f854 5b04 	ldr.w	r5, [r4], #4
 8000a00:	f8ad 2014 	strh.w	r2, [sp, #20]
 8000a04:	9002      	str	r0, [sp, #8]
 8000a06:	9006      	str	r0, [sp, #24]
 8000a08:	f7ff fbe2 	bl	80001d0 <strlen>
 8000a0c:	4b0b      	ldr	r3, [pc, #44]	@ (8000a3c <siscanf+0x4c>)
 8000a0e:	9003      	str	r0, [sp, #12]
 8000a10:	9007      	str	r0, [sp, #28]
 8000a12:	930b      	str	r3, [sp, #44]	@ 0x2c
 8000a14:	480a      	ldr	r0, [pc, #40]	@ (8000a40 <siscanf+0x50>)
 8000a16:	9401      	str	r4, [sp, #4]
 8000a18:	2300      	movs	r3, #0
 8000a1a:	930f      	str	r3, [sp, #60]	@ 0x3c
 8000a1c:	9314      	str	r3, [sp, #80]	@ 0x50
 8000a1e:	f64f 73ff 	movw	r3, #65535	@ 0xffff
 8000a22:	f8ad 3016 	strh.w	r3, [sp, #22]
 8000a26:	462a      	mov	r2, r5
 8000a28:	4623      	mov	r3, r4
 8000a2a:	a902      	add	r1, sp, #8
 8000a2c:	6800      	ldr	r0, [r0, #0]
 8000a2e:	f000 f987 	bl	8000d40 <__ssvfiscanf_r>
 8000a32:	b01c      	add	sp, #112	@ 0x70
 8000a34:	e8bd 4030 	ldmia.w	sp!, {r4, r5, lr}
 8000a38:	b003      	add	sp, #12
 8000a3a:	4770      	bx	lr
 8000a3c:	08000a45 	.word	0x08000a45
 8000a40:	20000004 	.word	0x20000004

08000a44 <__seofread>:
 8000a44:	2000      	movs	r0, #0
 8000a46:	4770      	bx	lr

08000a48 <__errno>:
 8000a48:	4b01      	ldr	r3, [pc, #4]	@ (8000a50 <__errno+0x8>)
 8000a4a:	6818      	ldr	r0, [r3, #0]
 8000a4c:	4770      	bx	lr
 8000a4e:	bf00      	nop
 8000a50:	20000004 	.word	0x20000004

08000a54 <__libc_init_array>:
 8000a54:	b570      	push	{r4, r5, r6, lr}
 8000a56:	4d0d      	ldr	r5, [pc, #52]	@ (8000a8c <__libc_init_array+0x38>)
 8000a58:	4c0d      	ldr	r4, [pc, #52]	@ (8000a90 <__libc_init_array+0x3c>)
 8000a5a:	1b64      	subs	r4, r4, r5
 8000a5c:	10a4      	asrs	r4, r4, #2
 8000a5e:	2600      	movs	r6, #0
 8000a60:	42a6      	cmp	r6, r4
 8000a62:	d109      	bne.n	8000a78 <__libc_init_array+0x24>
 8000a64:	4d0b      	ldr	r5, [pc, #44]	@ (8000a94 <__libc_init_array+0x40>)
 8000a66:	4c0c      	ldr	r4, [pc, #48]	@ (8000a98 <__libc_init_array+0x44>)
 8000a68:	f000 fde0 	bl	800162c <_init>
 8000a6c:	1b64      	subs	r4, r4, r5
 8000a6e:	10a4      	asrs	r4, r4, #2
 8000a70:	2600      	movs	r6, #0
 8000a72:	42a6      	cmp	r6, r4
 8000a74:	d105      	bne.n	8000a82 <__libc_init_array+0x2e>
 8000a76:	bd70      	pop	{r4, r5, r6, pc}
 8000a78:	f855 3b04 	ldr.w	r3, [r5], #4
 8000a7c:	4798      	blx	r3
 8000a7e:	3601      	adds	r6, #1
 8000a80:	e7ee      	b.n	8000a60 <__libc_init_array+0xc>
 8000a82:	f855 3b04 	ldr.w	r3, [r5], #4
 8000a86:	4798      	blx	r3
 8000a88:	3601      	adds	r6, #1
 8000a8a:	e7f2      	b.n	8000a72 <__libc_init_array+0x1e>
 8000a8c:	080017b4 	.word	0x080017b4
 8000a90:	080017b4 	.word	0x080017b4
 8000a94:	080017b4 	.word	0x080017b4
 8000a98:	080017b8 	.word	0x080017b8

08000a9c <__retarget_lock_acquire_recursive>:
 8000a9c:	4770      	bx	lr

08000a9e <__retarget_lock_release_recursive>:
 8000a9e:	4770      	bx	lr

08000aa0 <_free_r>:
 8000aa0:	b538      	push	{r3, r4, r5, lr}
 8000aa2:	4605      	mov	r5, r0
 8000aa4:	2900      	cmp	r1, #0
 8000aa6:	d041      	beq.n	8000b2c <_free_r+0x8c>
 8000aa8:	f851 3c04 	ldr.w	r3, [r1, #-4]
 8000aac:	1f0c      	subs	r4, r1, #4
 8000aae:	2b00      	cmp	r3, #0
 8000ab0:	bfb8      	it	lt
 8000ab2:	18e4      	addlt	r4, r4, r3
 8000ab4:	f000 f8e0 	bl	8000c78 <__malloc_lock>
 8000ab8:	4a1d      	ldr	r2, [pc, #116]	@ (8000b30 <_free_r+0x90>)
 8000aba:	6813      	ldr	r3, [r2, #0]
 8000abc:	b933      	cbnz	r3, 8000acc <_free_r+0x2c>
 8000abe:	6063      	str	r3, [r4, #4]
 8000ac0:	6014      	str	r4, [r2, #0]
 8000ac2:	4628      	mov	r0, r5
 8000ac4:	e8bd 4038 	ldmia.w	sp!, {r3, r4, r5, lr}
 8000ac8:	f000 b8dc 	b.w	8000c84 <__malloc_unlock>
 8000acc:	42a3      	cmp	r3, r4
 8000ace:	d908      	bls.n	8000ae2 <_free_r+0x42>
 8000ad0:	6820      	ldr	r0, [r4, #0]
 8000ad2:	1821      	adds	r1, r4, r0
 8000ad4:	428b      	cmp	r3, r1
 8000ad6:	bf01      	itttt	eq
 8000ad8:	6819      	ldreq	r1, [r3, #0]
 8000ada:	685b      	ldreq	r3, [r3, #4]
 8000adc:	1809      	addeq	r1, r1, r0
 8000ade:	6021      	streq	r1, [r4, #0]
 8000ae0:	e7ed      	b.n	8000abe <_free_r+0x1e>
 8000ae2:	461a      	mov	r2, r3
 8000ae4:	685b      	ldr	r3, [r3, #4]
 8000ae6:	b10b      	cbz	r3, 8000aec <_free_r+0x4c>
 8000ae8:	42a3      	cmp	r3, r4
 8000aea:	d9fa      	bls.n	8000ae2 <_free_r+0x42>
 8000aec:	6811      	ldr	r1, [r2, #0]
 8000aee:	1850      	adds	r0, r2, r1
 8000af0:	42a0      	cmp	r0, r4
 8000af2:	d10b      	bne.n	8000b0c <_free_r+0x6c>
 8000af4:	6820      	ldr	r0, [r4, #0]
 8000af6:	4401      	add	r1, r0
 8000af8:	1850      	adds	r0, r2, r1
 8000afa:	4283      	cmp	r3, r0
 8000afc:	6011      	str	r1, [r2, #0]
 8000afe:	d1e0      	bne.n	8000ac2 <_free_r+0x22>
 8000b00:	6818      	ldr	r0, [r3, #0]
 8000b02:	685b      	ldr	r3, [r3, #4]
 8000b04:	6053      	str	r3, [r2, #4]
 8000b06:	4408      	add	r0, r1
 8000b08:	6010      	str	r0, [r2, #0]
 8000b0a:	e7da      	b.n	8000ac2 <_free_r+0x22>
 8000b0c:	d902      	bls.n	8000b14 <_free_r+0x74>
 8000b0e:	230c      	movs	r3, #12
 8000b10:	602b      	str	r3, [r5, #0]
 8000b12:	e7d6      	b.n	8000ac2 <_free_r+0x22>
 8000b14:	6820      	ldr	r0, [r4, #0]
 8000b16:	1821      	adds	r1, r4, r0
 8000b18:	428b      	cmp	r3, r1
 8000b1a:	bf04      	itt	eq
 8000b1c:	6819      	ldreq	r1, [r3, #0]
 8000b1e:	685b      	ldreq	r3, [r3, #4]
 8000b20:	6063      	str	r3, [r4, #4]
 8000b22:	bf04      	itt	eq
 8000b24:	1809      	addeq	r1, r1, r0
 8000b26:	6021      	streq	r1, [r4, #0]
 8000b28:	6054      	str	r4, [r2, #4]
 8000b2a:	e7ca      	b.n	8000ac2 <_free_r+0x22>
 8000b2c:	bd38      	pop	{r3, r4, r5, pc}
 8000b2e:	bf00      	nop
 8000b30:	200001b8 	.word	0x200001b8

08000b34 <sbrk_aligned>:
 8000b34:	b570      	push	{r4, r5, r6, lr}
 8000b36:	4e0f      	ldr	r6, [pc, #60]	@ (8000b74 <sbrk_aligned+0x40>)
 8000b38:	460c      	mov	r4, r1
 8000b3a:	6831      	ldr	r1, [r6, #0]
 8000b3c:	4605      	mov	r5, r0
 8000b3e:	b911      	cbnz	r1, 8000b46 <sbrk_aligned+0x12>
 8000b40:	f000 fc34 	bl	80013ac <_sbrk_r>
 8000b44:	6030      	str	r0, [r6, #0]
 8000b46:	4621      	mov	r1, r4
 8000b48:	4628      	mov	r0, r5
 8000b4a:	f000 fc2f 	bl	80013ac <_sbrk_r>
 8000b4e:	1c43      	adds	r3, r0, #1
 8000b50:	d103      	bne.n	8000b5a <sbrk_aligned+0x26>
 8000b52:	f04f 34ff 	mov.w	r4, #4294967295	@ 0xffffffff
 8000b56:	4620      	mov	r0, r4
 8000b58:	bd70      	pop	{r4, r5, r6, pc}
 8000b5a:	1cc4      	adds	r4, r0, #3
 8000b5c:	f024 0403 	bic.w	r4, r4, #3
 8000b60:	42a0      	cmp	r0, r4
 8000b62:	d0f8      	beq.n	8000b56 <sbrk_aligned+0x22>
 8000b64:	1a21      	subs	r1, r4, r0
 8000b66:	4628      	mov	r0, r5
 8000b68:	f000 fc20 	bl	80013ac <_sbrk_r>
 8000b6c:	3001      	adds	r0, #1
 8000b6e:	d1f2      	bne.n	8000b56 <sbrk_aligned+0x22>
 8000b70:	e7ef      	b.n	8000b52 <sbrk_aligned+0x1e>
 8000b72:	bf00      	nop
 8000b74:	200001b4 	.word	0x200001b4

08000b78 <_malloc_r>:
 8000b78:	e92d 43f8 	stmdb	sp!, {r3, r4, r5, r6, r7, r8, r9, lr}
 8000b7c:	1ccd      	adds	r5, r1, #3
 8000b7e:	f025 0503 	bic.w	r5, r5, #3
 8000b82:	3508      	adds	r5, #8
 8000b84:	2d0c      	cmp	r5, #12
 8000b86:	bf38      	it	cc
 8000b88:	250c      	movcc	r5, #12
 8000b8a:	2d00      	cmp	r5, #0
 8000b8c:	4606      	mov	r6, r0
 8000b8e:	db01      	blt.n	8000b94 <_malloc_r+0x1c>
 8000b90:	42a9      	cmp	r1, r5
 8000b92:	d904      	bls.n	8000b9e <_malloc_r+0x26>
 8000b94:	230c      	movs	r3, #12
 8000b96:	6033      	str	r3, [r6, #0]
 8000b98:	2000      	movs	r0, #0
 8000b9a:	e8bd 83f8 	ldmia.w	sp!, {r3, r4, r5, r6, r7, r8, r9, pc}
 8000b9e:	f8df 80d4 	ldr.w	r8, [pc, #212]	@ 8000c74 <_malloc_r+0xfc>
 8000ba2:	f000 f869 	bl	8000c78 <__malloc_lock>
 8000ba6:	f8d8 3000 	ldr.w	r3, [r8]
 8000baa:	461c      	mov	r4, r3
 8000bac:	bb44      	cbnz	r4, 8000c00 <_malloc_r+0x88>
 8000bae:	4629      	mov	r1, r5
 8000bb0:	4630      	mov	r0, r6
 8000bb2:	f7ff ffbf 	bl	8000b34 <sbrk_aligned>
 8000bb6:	1c43      	adds	r3, r0, #1
 8000bb8:	4604      	mov	r4, r0
 8000bba:	d158      	bne.n	8000c6e <_malloc_r+0xf6>
 8000bbc:	f8d8 4000 	ldr.w	r4, [r8]
 8000bc0:	4627      	mov	r7, r4
 8000bc2:	2f00      	cmp	r7, #0
 8000bc4:	d143      	bne.n	8000c4e <_malloc_r+0xd6>
 8000bc6:	2c00      	cmp	r4, #0
 8000bc8:	d04b      	beq.n	8000c62 <_malloc_r+0xea>
 8000bca:	6823      	ldr	r3, [r4, #0]
 8000bcc:	4639      	mov	r1, r7
 8000bce:	4630      	mov	r0, r6
 8000bd0:	eb04 0903 	add.w	r9, r4, r3
 8000bd4:	f000 fbea 	bl	80013ac <_sbrk_r>
 8000bd8:	4581      	cmp	r9, r0
 8000bda:	d142      	bne.n	8000c62 <_malloc_r+0xea>
 8000bdc:	6821      	ldr	r1, [r4, #0]
 8000bde:	1a6d      	subs	r5, r5, r1
 8000be0:	4629      	mov	r1, r5
 8000be2:	4630      	mov	r0, r6
 8000be4:	f7ff ffa6 	bl	8000b34 <sbrk_aligned>
 8000be8:	3001      	adds	r0, #1
 8000bea:	d03a      	beq.n	8000c62 <_malloc_r+0xea>
 8000bec:	6823      	ldr	r3, [r4, #0]
 8000bee:	442b      	add	r3, r5
 8000bf0:	6023      	str	r3, [r4, #0]
 8000bf2:	f8d8 3000 	ldr.w	r3, [r8]
 8000bf6:	685a      	ldr	r2, [r3, #4]
 8000bf8:	bb62      	cbnz	r2, 8000c54 <_malloc_r+0xdc>
 8000bfa:	f8c8 7000 	str.w	r7, [r8]
 8000bfe:	e00f      	b.n	8000c20 <_malloc_r+0xa8>
 8000c00:	6822      	ldr	r2, [r4, #0]
 8000c02:	1b52      	subs	r2, r2, r5
 8000c04:	d420      	bmi.n	8000c48 <_malloc_r+0xd0>
 8000c06:	2a0b      	cmp	r2, #11
 8000c08:	d917      	bls.n	8000c3a <_malloc_r+0xc2>
 8000c0a:	1961      	adds	r1, r4, r5
 8000c0c:	42a3      	cmp	r3, r4
 8000c0e:	6025      	str	r5, [r4, #0]
 8000c10:	bf18      	it	ne
 8000c12:	6059      	strne	r1, [r3, #4]
 8000c14:	6863      	ldr	r3, [r4, #4]
 8000c16:	bf08      	it	eq
 8000c18:	f8c8 1000 	streq.w	r1, [r8]
 8000c1c:	5162      	str	r2, [r4, r5]
 8000c1e:	604b      	str	r3, [r1, #4]
 8000c20:	4630      	mov	r0, r6
 8000c22:	f000 f82f 	bl	8000c84 <__malloc_unlock>
 8000c26:	f104 000b 	add.w	r0, r4, #11
 8000c2a:	1d23      	adds	r3, r4, #4
 8000c2c:	f020 0007 	bic.w	r0, r0, #7
 8000c30:	1ac2      	subs	r2, r0, r3
 8000c32:	bf1c      	itt	ne
 8000c34:	1a1b      	subne	r3, r3, r0
 8000c36:	50a3      	strne	r3, [r4, r2]
 8000c38:	e7af      	b.n	8000b9a <_malloc_r+0x22>
 8000c3a:	6862      	ldr	r2, [r4, #4]
 8000c3c:	42a3      	cmp	r3, r4
 8000c3e:	bf0c      	ite	eq
 8000c40:	f8c8 2000 	streq.w	r2, [r8]
 8000c44:	605a      	strne	r2, [r3, #4]
 8000c46:	e7eb      	b.n	8000c20 <_malloc_r+0xa8>
 8000c48:	4623      	mov	r3, r4
 8000c4a:	6864      	ldr	r4, [r4, #4]
 8000c4c:	e7ae      	b.n	8000bac <_malloc_r+0x34>
 8000c4e:	463c      	mov	r4, r7
 8000c50:	687f      	ldr	r7, [r7, #4]
 8000c52:	e7b6      	b.n	8000bc2 <_malloc_r+0x4a>
 8000c54:	461a      	mov	r2, r3
 8000c56:	685b      	ldr	r3, [r3, #4]
 8000c58:	42a3      	cmp	r3, r4
 8000c5a:	d1fb      	bne.n	8000c54 <_malloc_r+0xdc>
 8000c5c:	2300      	movs	r3, #0
 8000c5e:	6053      	str	r3, [r2, #4]
 8000c60:	e7de      	b.n	8000c20 <_malloc_r+0xa8>
 8000c62:	230c      	movs	r3, #12
 8000c64:	6033      	str	r3, [r6, #0]
 8000c66:	4630      	mov	r0, r6
 8000c68:	f000 f80c 	bl	8000c84 <__malloc_unlock>
 8000c6c:	e794      	b.n	8000b98 <_malloc_r+0x20>
 8000c6e:	6005      	str	r5, [r0, #0]
 8000c70:	e7d6      	b.n	8000c20 <_malloc_r+0xa8>
 8000c72:	bf00      	nop
 8000c74:	200001b8 	.word	0x200001b8

08000c78 <__malloc_lock>:
 8000c78:	4801      	ldr	r0, [pc, #4]	@ (8000c80 <__malloc_lock+0x8>)
 8000c7a:	f7ff bf0f 	b.w	8000a9c <__retarget_lock_acquire_recursive>
 8000c7e:	bf00      	nop
 8000c80:	200001b0 	.word	0x200001b0

08000c84 <__malloc_unlock>:
 8000c84:	4801      	ldr	r0, [pc, #4]	@ (8000c8c <__malloc_unlock+0x8>)
 8000c86:	f7ff bf0a 	b.w	8000a9e <__retarget_lock_release_recursive>
 8000c8a:	bf00      	nop
 8000c8c:	200001b0 	.word	0x200001b0

08000c90 <_sungetc_r>:
 8000c90:	b538      	push	{r3, r4, r5, lr}
 8000c92:	1c4b      	adds	r3, r1, #1
 8000c94:	4614      	mov	r4, r2
 8000c96:	d103      	bne.n	8000ca0 <_sungetc_r+0x10>
 8000c98:	f04f 35ff 	mov.w	r5, #4294967295	@ 0xffffffff
 8000c9c:	4628      	mov	r0, r5
 8000c9e:	bd38      	pop	{r3, r4, r5, pc}
 8000ca0:	8993      	ldrh	r3, [r2, #12]
 8000ca2:	f023 0320 	bic.w	r3, r3, #32
 8000ca6:	8193      	strh	r3, [r2, #12]
 8000ca8:	6853      	ldr	r3, [r2, #4]
 8000caa:	6b52      	ldr	r2, [r2, #52]	@ 0x34
 8000cac:	b2cd      	uxtb	r5, r1
 8000cae:	b18a      	cbz	r2, 8000cd4 <_sungetc_r+0x44>
 8000cb0:	6ba2      	ldr	r2, [r4, #56]	@ 0x38
 8000cb2:	429a      	cmp	r2, r3
 8000cb4:	dd08      	ble.n	8000cc8 <_sungetc_r+0x38>
 8000cb6:	6823      	ldr	r3, [r4, #0]
 8000cb8:	1e5a      	subs	r2, r3, #1
 8000cba:	6022      	str	r2, [r4, #0]
 8000cbc:	f803 5c01 	strb.w	r5, [r3, #-1]
 8000cc0:	6863      	ldr	r3, [r4, #4]
 8000cc2:	3301      	adds	r3, #1
 8000cc4:	6063      	str	r3, [r4, #4]
 8000cc6:	e7e9      	b.n	8000c9c <_sungetc_r+0xc>
 8000cc8:	4621      	mov	r1, r4
 8000cca:	f000 fb34 	bl	8001336 <__submore>
 8000cce:	2800      	cmp	r0, #0
 8000cd0:	d0f1      	beq.n	8000cb6 <_sungetc_r+0x26>
 8000cd2:	e7e1      	b.n	8000c98 <_sungetc_r+0x8>
 8000cd4:	6921      	ldr	r1, [r4, #16]
 8000cd6:	6822      	ldr	r2, [r4, #0]
 8000cd8:	b141      	cbz	r1, 8000cec <_sungetc_r+0x5c>
 8000cda:	4291      	cmp	r1, r2
 8000cdc:	d206      	bcs.n	8000cec <_sungetc_r+0x5c>
 8000cde:	f812 1c01 	ldrb.w	r1, [r2, #-1]
 8000ce2:	42a9      	cmp	r1, r5
 8000ce4:	d102      	bne.n	8000cec <_sungetc_r+0x5c>
 8000ce6:	3a01      	subs	r2, #1
 8000ce8:	6022      	str	r2, [r4, #0]
 8000cea:	e7ea      	b.n	8000cc2 <_sungetc_r+0x32>
 8000cec:	e9c4 230f 	strd	r2, r3, [r4, #60]	@ 0x3c
 8000cf0:	f104 0344 	add.w	r3, r4, #68	@ 0x44
 8000cf4:	6363      	str	r3, [r4, #52]	@ 0x34
 8000cf6:	2303      	movs	r3, #3
 8000cf8:	63a3      	str	r3, [r4, #56]	@ 0x38
 8000cfa:	4623      	mov	r3, r4
 8000cfc:	f803 5f46 	strb.w	r5, [r3, #70]!
 8000d00:	6023      	str	r3, [r4, #0]
 8000d02:	2301      	movs	r3, #1
 8000d04:	e7de      	b.n	8000cc4 <_sungetc_r+0x34>

08000d06 <__ssrefill_r>:
 8000d06:	b510      	push	{r4, lr}
 8000d08:	460c      	mov	r4, r1
 8000d0a:	6b49      	ldr	r1, [r1, #52]	@ 0x34
 8000d0c:	b169      	cbz	r1, 8000d2a <__ssrefill_r+0x24>
 8000d0e:	f104 0344 	add.w	r3, r4, #68	@ 0x44
 8000d12:	4299      	cmp	r1, r3
 8000d14:	d001      	beq.n	8000d1a <__ssrefill_r+0x14>
 8000d16:	f7ff fec3 	bl	8000aa0 <_free_r>
 8000d1a:	6c23      	ldr	r3, [r4, #64]	@ 0x40
 8000d1c:	6063      	str	r3, [r4, #4]
 8000d1e:	2000      	movs	r0, #0
 8000d20:	6360      	str	r0, [r4, #52]	@ 0x34
 8000d22:	b113      	cbz	r3, 8000d2a <__ssrefill_r+0x24>
 8000d24:	6be3      	ldr	r3, [r4, #60]	@ 0x3c
 8000d26:	6023      	str	r3, [r4, #0]
 8000d28:	bd10      	pop	{r4, pc}
 8000d2a:	6923      	ldr	r3, [r4, #16]
 8000d2c:	6023      	str	r3, [r4, #0]
 8000d2e:	2300      	movs	r3, #0
 8000d30:	6063      	str	r3, [r4, #4]
 8000d32:	89a3      	ldrh	r3, [r4, #12]
 8000d34:	f043 0320 	orr.w	r3, r3, #32
 8000d38:	81a3      	strh	r3, [r4, #12]
 8000d3a:	f04f 30ff 	mov.w	r0, #4294967295	@ 0xffffffff
 8000d3e:	e7f3      	b.n	8000d28 <__ssrefill_r+0x22>

08000d40 <__ssvfiscanf_r>:
 8000d40:	e92d 47f0 	stmdb	sp!, {r4, r5, r6, r7, r8, r9, sl, lr}
 8000d44:	460c      	mov	r4, r1
 8000d46:	f5ad 7d22 	sub.w	sp, sp, #648	@ 0x288
 8000d4a:	2100      	movs	r1, #0
 8000d4c:	e9cd 1144 	strd	r1, r1, [sp, #272]	@ 0x110
 8000d50:	49a5      	ldr	r1, [pc, #660]	@ (8000fe8 <__ssvfiscanf_r+0x2a8>)
 8000d52:	91a0      	str	r1, [sp, #640]	@ 0x280
 8000d54:	f10d 0804 	add.w	r8, sp, #4
 8000d58:	49a4      	ldr	r1, [pc, #656]	@ (8000fec <__ssvfiscanf_r+0x2ac>)
 8000d5a:	4fa5      	ldr	r7, [pc, #660]	@ (8000ff0 <__ssvfiscanf_r+0x2b0>)
 8000d5c:	f8cd 8118 	str.w	r8, [sp, #280]	@ 0x118
 8000d60:	4606      	mov	r6, r0
 8000d62:	91a1      	str	r1, [sp, #644]	@ 0x284
 8000d64:	9300      	str	r3, [sp, #0]
 8000d66:	7813      	ldrb	r3, [r2, #0]
 8000d68:	2b00      	cmp	r3, #0
 8000d6a:	f000 8158 	beq.w	800101e <__ssvfiscanf_r+0x2de>
 8000d6e:	5cf9      	ldrb	r1, [r7, r3]
 8000d70:	f011 0108 	ands.w	r1, r1, #8
 8000d74:	f102 0501 	add.w	r5, r2, #1
 8000d78:	d019      	beq.n	8000dae <__ssvfiscanf_r+0x6e>
 8000d7a:	6863      	ldr	r3, [r4, #4]
 8000d7c:	2b00      	cmp	r3, #0
 8000d7e:	dd0f      	ble.n	8000da0 <__ssvfiscanf_r+0x60>
 8000d80:	6823      	ldr	r3, [r4, #0]
 8000d82:	781a      	ldrb	r2, [r3, #0]
 8000d84:	5cba      	ldrb	r2, [r7, r2]
 8000d86:	0712      	lsls	r2, r2, #28
 8000d88:	d401      	bmi.n	8000d8e <__ssvfiscanf_r+0x4e>
 8000d8a:	462a      	mov	r2, r5
 8000d8c:	e7eb      	b.n	8000d66 <__ssvfiscanf_r+0x26>
 8000d8e:	9a45      	ldr	r2, [sp, #276]	@ 0x114
 8000d90:	3201      	adds	r2, #1
 8000d92:	9245      	str	r2, [sp, #276]	@ 0x114
 8000d94:	6862      	ldr	r2, [r4, #4]
 8000d96:	3301      	adds	r3, #1
 8000d98:	3a01      	subs	r2, #1
 8000d9a:	6062      	str	r2, [r4, #4]
 8000d9c:	6023      	str	r3, [r4, #0]
 8000d9e:	e7ec      	b.n	8000d7a <__ssvfiscanf_r+0x3a>
 8000da0:	9ba1      	ldr	r3, [sp, #644]	@ 0x284
 8000da2:	4621      	mov	r1, r4
 8000da4:	4630      	mov	r0, r6
 8000da6:	4798      	blx	r3
 8000da8:	2800      	cmp	r0, #0
 8000daa:	d0e9      	beq.n	8000d80 <__ssvfiscanf_r+0x40>
 8000dac:	e7ed      	b.n	8000d8a <__ssvfiscanf_r+0x4a>
 8000dae:	2b25      	cmp	r3, #37	@ 0x25
 8000db0:	d012      	beq.n	8000dd8 <__ssvfiscanf_r+0x98>
 8000db2:	4699      	mov	r9, r3
 8000db4:	6863      	ldr	r3, [r4, #4]
 8000db6:	2b00      	cmp	r3, #0
 8000db8:	f340 8093 	ble.w	8000ee2 <__ssvfiscanf_r+0x1a2>
 8000dbc:	6822      	ldr	r2, [r4, #0]
 8000dbe:	7813      	ldrb	r3, [r2, #0]
 8000dc0:	454b      	cmp	r3, r9
 8000dc2:	f040 812c 	bne.w	800101e <__ssvfiscanf_r+0x2de>
 8000dc6:	6863      	ldr	r3, [r4, #4]
 8000dc8:	3b01      	subs	r3, #1
 8000dca:	6063      	str	r3, [r4, #4]
 8000dcc:	9b45      	ldr	r3, [sp, #276]	@ 0x114
 8000dce:	3201      	adds	r2, #1
 8000dd0:	3301      	adds	r3, #1
 8000dd2:	6022      	str	r2, [r4, #0]
 8000dd4:	9345      	str	r3, [sp, #276]	@ 0x114
 8000dd6:	e7d8      	b.n	8000d8a <__ssvfiscanf_r+0x4a>
 8000dd8:	9141      	str	r1, [sp, #260]	@ 0x104
 8000dda:	9143      	str	r1, [sp, #268]	@ 0x10c
 8000ddc:	7853      	ldrb	r3, [r2, #1]
 8000dde:	2b2a      	cmp	r3, #42	@ 0x2a
 8000de0:	bf02      	ittt	eq
 8000de2:	2310      	moveq	r3, #16
 8000de4:	1c95      	addeq	r5, r2, #2
 8000de6:	9341      	streq	r3, [sp, #260]	@ 0x104
 8000de8:	220a      	movs	r2, #10
 8000dea:	46a9      	mov	r9, r5
 8000dec:	f819 1b01 	ldrb.w	r1, [r9], #1
 8000df0:	f1a1 0330 	sub.w	r3, r1, #48	@ 0x30
 8000df4:	2b09      	cmp	r3, #9
 8000df6:	d91e      	bls.n	8000e36 <__ssvfiscanf_r+0xf6>
 8000df8:	f8df a1f8 	ldr.w	sl, [pc, #504]	@ 8000ff4 <__ssvfiscanf_r+0x2b4>
 8000dfc:	2203      	movs	r2, #3
 8000dfe:	4650      	mov	r0, sl
 8000e00:	f7ff f9ee 	bl	80001e0 <memchr>
 8000e04:	b138      	cbz	r0, 8000e16 <__ssvfiscanf_r+0xd6>
 8000e06:	9a41      	ldr	r2, [sp, #260]	@ 0x104
 8000e08:	eba0 000a 	sub.w	r0, r0, sl
 8000e0c:	2301      	movs	r3, #1
 8000e0e:	4083      	lsls	r3, r0
 8000e10:	4313      	orrs	r3, r2
 8000e12:	9341      	str	r3, [sp, #260]	@ 0x104
 8000e14:	464d      	mov	r5, r9
 8000e16:	f815 3b01 	ldrb.w	r3, [r5], #1
 8000e1a:	2b78      	cmp	r3, #120	@ 0x78
 8000e1c:	d806      	bhi.n	8000e2c <__ssvfiscanf_r+0xec>
 8000e1e:	2b57      	cmp	r3, #87	@ 0x57
 8000e20:	d810      	bhi.n	8000e44 <__ssvfiscanf_r+0x104>
 8000e22:	2b25      	cmp	r3, #37	@ 0x25
 8000e24:	d0c5      	beq.n	8000db2 <__ssvfiscanf_r+0x72>
 8000e26:	d857      	bhi.n	8000ed8 <__ssvfiscanf_r+0x198>
 8000e28:	2b00      	cmp	r3, #0
 8000e2a:	d065      	beq.n	8000ef8 <__ssvfiscanf_r+0x1b8>
 8000e2c:	2303      	movs	r3, #3
 8000e2e:	9347      	str	r3, [sp, #284]	@ 0x11c
 8000e30:	230a      	movs	r3, #10
 8000e32:	9342      	str	r3, [sp, #264]	@ 0x108
 8000e34:	e078      	b.n	8000f28 <__ssvfiscanf_r+0x1e8>
 8000e36:	9b43      	ldr	r3, [sp, #268]	@ 0x10c
 8000e38:	fb02 1103 	mla	r1, r2, r3, r1
 8000e3c:	3930      	subs	r1, #48	@ 0x30
 8000e3e:	9143      	str	r1, [sp, #268]	@ 0x10c
 8000e40:	464d      	mov	r5, r9
 8000e42:	e7d2      	b.n	8000dea <__ssvfiscanf_r+0xaa>
 8000e44:	f1a3 0258 	sub.w	r2, r3, #88	@ 0x58
 8000e48:	2a20      	cmp	r2, #32
 8000e4a:	d8ef      	bhi.n	8000e2c <__ssvfiscanf_r+0xec>
 8000e4c:	a101      	add	r1, pc, #4	@ (adr r1, 8000e54 <__ssvfiscanf_r+0x114>)
 8000e4e:	f851 f022 	ldr.w	pc, [r1, r2, lsl #2]
 8000e52:	bf00      	nop
 8000e54:	08000f07 	.word	0x08000f07
 8000e58:	08000e2d 	.word	0x08000e2d
 8000e5c:	08000e2d 	.word	0x08000e2d
 8000e60:	08000f61 	.word	0x08000f61
 8000e64:	08000e2d 	.word	0x08000e2d
 8000e68:	08000e2d 	.word	0x08000e2d
 8000e6c:	08000e2d 	.word	0x08000e2d
 8000e70:	08000e2d 	.word	0x08000e2d
 8000e74:	08000e2d 	.word	0x08000e2d
 8000e78:	08000e2d 	.word	0x08000e2d
 8000e7c:	08000e2d 	.word	0x08000e2d
 8000e80:	08000f77 	.word	0x08000f77
 8000e84:	08000f5d 	.word	0x08000f5d
 8000e88:	08000edf 	.word	0x08000edf
 8000e8c:	08000edf 	.word	0x08000edf
 8000e90:	08000edf 	.word	0x08000edf
 8000e94:	08000e2d 	.word	0x08000e2d
 8000e98:	08000f19 	.word	0x08000f19
 8000e9c:	08000e2d 	.word	0x08000e2d
 8000ea0:	08000e2d 	.word	0x08000e2d
 8000ea4:	08000e2d 	.word	0x08000e2d
 8000ea8:	08000e2d 	.word	0x08000e2d
 8000eac:	08000f87 	.word	0x08000f87
 8000eb0:	08000f21 	.word	0x08000f21
 8000eb4:	08000eff 	.word	0x08000eff
 8000eb8:	08000e2d 	.word	0x08000e2d
 8000ebc:	08000e2d 	.word	0x08000e2d
 8000ec0:	08000f83 	.word	0x08000f83
 8000ec4:	08000e2d 	.word	0x08000e2d
 8000ec8:	08000f5d 	.word	0x08000f5d
 8000ecc:	08000e2d 	.word	0x08000e2d
 8000ed0:	08000e2d 	.word	0x08000e2d
 8000ed4:	08000f07 	.word	0x08000f07
 8000ed8:	3b45      	subs	r3, #69	@ 0x45
 8000eda:	2b02      	cmp	r3, #2
 8000edc:	d8a6      	bhi.n	8000e2c <__ssvfiscanf_r+0xec>
 8000ede:	2305      	movs	r3, #5
 8000ee0:	e021      	b.n	8000f26 <__ssvfiscanf_r+0x1e6>
 8000ee2:	9ba1      	ldr	r3, [sp, #644]	@ 0x284
 8000ee4:	4621      	mov	r1, r4
 8000ee6:	4630      	mov	r0, r6
 8000ee8:	4798      	blx	r3
 8000eea:	2800      	cmp	r0, #0
 8000eec:	f43f af66 	beq.w	8000dbc <__ssvfiscanf_r+0x7c>
 8000ef0:	9844      	ldr	r0, [sp, #272]	@ 0x110
 8000ef2:	2800      	cmp	r0, #0
 8000ef4:	f040 808b 	bne.w	800100e <__ssvfiscanf_r+0x2ce>
 8000ef8:	f04f 30ff 	mov.w	r0, #4294967295	@ 0xffffffff
 8000efc:	e08b      	b.n	8001016 <__ssvfiscanf_r+0x2d6>
 8000efe:	9a41      	ldr	r2, [sp, #260]	@ 0x104
 8000f00:	f042 0220 	orr.w	r2, r2, #32
 8000f04:	9241      	str	r2, [sp, #260]	@ 0x104
 8000f06:	9a41      	ldr	r2, [sp, #260]	@ 0x104
 8000f08:	f442 7200 	orr.w	r2, r2, #512	@ 0x200
 8000f0c:	9241      	str	r2, [sp, #260]	@ 0x104
 8000f0e:	2210      	movs	r2, #16
 8000f10:	2b6e      	cmp	r3, #110	@ 0x6e
 8000f12:	9242      	str	r2, [sp, #264]	@ 0x108
 8000f14:	d902      	bls.n	8000f1c <__ssvfiscanf_r+0x1dc>
 8000f16:	e005      	b.n	8000f24 <__ssvfiscanf_r+0x1e4>
 8000f18:	2300      	movs	r3, #0
 8000f1a:	9342      	str	r3, [sp, #264]	@ 0x108
 8000f1c:	2303      	movs	r3, #3
 8000f1e:	e002      	b.n	8000f26 <__ssvfiscanf_r+0x1e6>
 8000f20:	2308      	movs	r3, #8
 8000f22:	9342      	str	r3, [sp, #264]	@ 0x108
 8000f24:	2304      	movs	r3, #4
 8000f26:	9347      	str	r3, [sp, #284]	@ 0x11c
 8000f28:	6863      	ldr	r3, [r4, #4]
 8000f2a:	2b00      	cmp	r3, #0
 8000f2c:	dd39      	ble.n	8000fa2 <__ssvfiscanf_r+0x262>
 8000f2e:	9b41      	ldr	r3, [sp, #260]	@ 0x104
 8000f30:	0659      	lsls	r1, r3, #25
 8000f32:	d404      	bmi.n	8000f3e <__ssvfiscanf_r+0x1fe>
 8000f34:	6823      	ldr	r3, [r4, #0]
 8000f36:	781a      	ldrb	r2, [r3, #0]
 8000f38:	5cba      	ldrb	r2, [r7, r2]
 8000f3a:	0712      	lsls	r2, r2, #28
 8000f3c:	d438      	bmi.n	8000fb0 <__ssvfiscanf_r+0x270>
 8000f3e:	9b47      	ldr	r3, [sp, #284]	@ 0x11c
 8000f40:	2b02      	cmp	r3, #2
 8000f42:	dc47      	bgt.n	8000fd4 <__ssvfiscanf_r+0x294>
 8000f44:	466b      	mov	r3, sp
 8000f46:	4622      	mov	r2, r4
 8000f48:	a941      	add	r1, sp, #260	@ 0x104
 8000f4a:	4630      	mov	r0, r6
 8000f4c:	f000 f86c 	bl	8001028 <_scanf_chars>
 8000f50:	2801      	cmp	r0, #1
 8000f52:	d064      	beq.n	800101e <__ssvfiscanf_r+0x2de>
 8000f54:	2802      	cmp	r0, #2
 8000f56:	f47f af18 	bne.w	8000d8a <__ssvfiscanf_r+0x4a>
 8000f5a:	e7c9      	b.n	8000ef0 <__ssvfiscanf_r+0x1b0>
 8000f5c:	220a      	movs	r2, #10
 8000f5e:	e7d7      	b.n	8000f10 <__ssvfiscanf_r+0x1d0>
 8000f60:	4629      	mov	r1, r5
 8000f62:	4640      	mov	r0, r8
 8000f64:	f000 f9ae 	bl	80012c4 <__sccl>
 8000f68:	9b41      	ldr	r3, [sp, #260]	@ 0x104
 8000f6a:	f043 0340 	orr.w	r3, r3, #64	@ 0x40
 8000f6e:	9341      	str	r3, [sp, #260]	@ 0x104
 8000f70:	4605      	mov	r5, r0
 8000f72:	2301      	movs	r3, #1
 8000f74:	e7d7      	b.n	8000f26 <__ssvfiscanf_r+0x1e6>
 8000f76:	9b41      	ldr	r3, [sp, #260]	@ 0x104
 8000f78:	f043 0340 	orr.w	r3, r3, #64	@ 0x40
 8000f7c:	9341      	str	r3, [sp, #260]	@ 0x104
 8000f7e:	2300      	movs	r3, #0
 8000f80:	e7d1      	b.n	8000f26 <__ssvfiscanf_r+0x1e6>
 8000f82:	2302      	movs	r3, #2
 8000f84:	e7cf      	b.n	8000f26 <__ssvfiscanf_r+0x1e6>
 8000f86:	9841      	ldr	r0, [sp, #260]	@ 0x104
 8000f88:	06c3      	lsls	r3, r0, #27
 8000f8a:	f53f aefe 	bmi.w	8000d8a <__ssvfiscanf_r+0x4a>
 8000f8e:	9b00      	ldr	r3, [sp, #0]
 8000f90:	9a45      	ldr	r2, [sp, #276]	@ 0x114
 8000f92:	1d19      	adds	r1, r3, #4
 8000f94:	9100      	str	r1, [sp, #0]
 8000f96:	681b      	ldr	r3, [r3, #0]
 8000f98:	07c0      	lsls	r0, r0, #31
 8000f9a:	bf4c      	ite	mi
 8000f9c:	801a      	strhmi	r2, [r3, #0]
 8000f9e:	601a      	strpl	r2, [r3, #0]
 8000fa0:	e6f3      	b.n	8000d8a <__ssvfiscanf_r+0x4a>
 8000fa2:	9ba1      	ldr	r3, [sp, #644]	@ 0x284
 8000fa4:	4621      	mov	r1, r4
 8000fa6:	4630      	mov	r0, r6
 8000fa8:	4798      	blx	r3
 8000faa:	2800      	cmp	r0, #0
 8000fac:	d0bf      	beq.n	8000f2e <__ssvfiscanf_r+0x1ee>
 8000fae:	e79f      	b.n	8000ef0 <__ssvfiscanf_r+0x1b0>
 8000fb0:	9a45      	ldr	r2, [sp, #276]	@ 0x114
 8000fb2:	3201      	adds	r2, #1
 8000fb4:	9245      	str	r2, [sp, #276]	@ 0x114
 8000fb6:	6862      	ldr	r2, [r4, #4]
 8000fb8:	3a01      	subs	r2, #1
 8000fba:	2a00      	cmp	r2, #0
 8000fbc:	6062      	str	r2, [r4, #4]
 8000fbe:	dd02      	ble.n	8000fc6 <__ssvfiscanf_r+0x286>
 8000fc0:	3301      	adds	r3, #1
 8000fc2:	6023      	str	r3, [r4, #0]
 8000fc4:	e7b6      	b.n	8000f34 <__ssvfiscanf_r+0x1f4>
 8000fc6:	9ba1      	ldr	r3, [sp, #644]	@ 0x284
 8000fc8:	4621      	mov	r1, r4
 8000fca:	4630      	mov	r0, r6
 8000fcc:	4798      	blx	r3
 8000fce:	2800      	cmp	r0, #0
 8000fd0:	d0b0      	beq.n	8000f34 <__ssvfiscanf_r+0x1f4>
 8000fd2:	e78d      	b.n	8000ef0 <__ssvfiscanf_r+0x1b0>
 8000fd4:	2b04      	cmp	r3, #4
 8000fd6:	dc0f      	bgt.n	8000ff8 <__ssvfiscanf_r+0x2b8>
 8000fd8:	466b      	mov	r3, sp
 8000fda:	4622      	mov	r2, r4
 8000fdc:	a941      	add	r1, sp, #260	@ 0x104
 8000fde:	4630      	mov	r0, r6
 8000fe0:	f000 f87c 	bl	80010dc <_scanf_i>
 8000fe4:	e7b4      	b.n	8000f50 <__ssvfiscanf_r+0x210>
 8000fe6:	bf00      	nop
 8000fe8:	08000c91 	.word	0x08000c91
 8000fec:	08000d07 	.word	0x08000d07
 8000ff0:	080016ac 	.word	0x080016ac
 8000ff4:	0800168c 	.word	0x0800168c
 8000ff8:	4b0a      	ldr	r3, [pc, #40]	@ (8001024 <__ssvfiscanf_r+0x2e4>)
 8000ffa:	2b00      	cmp	r3, #0
 8000ffc:	f43f aec5 	beq.w	8000d8a <__ssvfiscanf_r+0x4a>
 8001000:	466b      	mov	r3, sp
 8001002:	4622      	mov	r2, r4
 8001004:	a941      	add	r1, sp, #260	@ 0x104
 8001006:	4630      	mov	r0, r6
 8001008:	f3af 8000 	nop.w
 800100c:	e7a0      	b.n	8000f50 <__ssvfiscanf_r+0x210>
 800100e:	89a3      	ldrh	r3, [r4, #12]
 8001010:	065b      	lsls	r3, r3, #25
 8001012:	f53f af71 	bmi.w	8000ef8 <__ssvfiscanf_r+0x1b8>
 8001016:	f50d 7d22 	add.w	sp, sp, #648	@ 0x288
 800101a:	e8bd 87f0 	ldmia.w	sp!, {r4, r5, r6, r7, r8, r9, sl, pc}
 800101e:	9844      	ldr	r0, [sp, #272]	@ 0x110
 8001020:	e7f9      	b.n	8001016 <__ssvfiscanf_r+0x2d6>
 8001022:	bf00      	nop
 8001024:	00000000 	.word	0x00000000

08001028 <_scanf_chars>:
 8001028:	e92d 43f8 	stmdb	sp!, {r3, r4, r5, r6, r7, r8, r9, lr}
 800102c:	4615      	mov	r5, r2
 800102e:	688a      	ldr	r2, [r1, #8]
 8001030:	4680      	mov	r8, r0
 8001032:	460c      	mov	r4, r1
 8001034:	b932      	cbnz	r2, 8001044 <_scanf_chars+0x1c>
 8001036:	698a      	ldr	r2, [r1, #24]
 8001038:	2a00      	cmp	r2, #0
 800103a:	bf14      	ite	ne
 800103c:	f04f 32ff 	movne.w	r2, #4294967295	@ 0xffffffff
 8001040:	2201      	moveq	r2, #1
 8001042:	608a      	str	r2, [r1, #8]
 8001044:	6822      	ldr	r2, [r4, #0]
 8001046:	f8df 9090 	ldr.w	r9, [pc, #144]	@ 80010d8 <_scanf_chars+0xb0>
 800104a:	06d1      	lsls	r1, r2, #27
 800104c:	bf5f      	itttt	pl
 800104e:	681a      	ldrpl	r2, [r3, #0]
 8001050:	1d11      	addpl	r1, r2, #4
 8001052:	6019      	strpl	r1, [r3, #0]
 8001054:	6816      	ldrpl	r6, [r2, #0]
 8001056:	2700      	movs	r7, #0
 8001058:	69a0      	ldr	r0, [r4, #24]
 800105a:	b188      	cbz	r0, 8001080 <_scanf_chars+0x58>
 800105c:	2801      	cmp	r0, #1
 800105e:	d107      	bne.n	8001070 <_scanf_chars+0x48>
 8001060:	682b      	ldr	r3, [r5, #0]
 8001062:	781a      	ldrb	r2, [r3, #0]
 8001064:	6963      	ldr	r3, [r4, #20]
 8001066:	5c9b      	ldrb	r3, [r3, r2]
 8001068:	b953      	cbnz	r3, 8001080 <_scanf_chars+0x58>
 800106a:	2f00      	cmp	r7, #0
 800106c:	d031      	beq.n	80010d2 <_scanf_chars+0xaa>
 800106e:	e022      	b.n	80010b6 <_scanf_chars+0x8e>
 8001070:	2802      	cmp	r0, #2
 8001072:	d120      	bne.n	80010b6 <_scanf_chars+0x8e>
 8001074:	682b      	ldr	r3, [r5, #0]
 8001076:	781b      	ldrb	r3, [r3, #0]
 8001078:	f819 3003 	ldrb.w	r3, [r9, r3]
 800107c:	071b      	lsls	r3, r3, #28
 800107e:	d41a      	bmi.n	80010b6 <_scanf_chars+0x8e>
 8001080:	6823      	ldr	r3, [r4, #0]
 8001082:	06da      	lsls	r2, r3, #27
 8001084:	bf5e      	ittt	pl
 8001086:	682b      	ldrpl	r3, [r5, #0]
 8001088:	781b      	ldrbpl	r3, [r3, #0]
 800108a:	f806 3b01 	strbpl.w	r3, [r6], #1
 800108e:	682a      	ldr	r2, [r5, #0]
 8001090:	686b      	ldr	r3, [r5, #4]
 8001092:	3201      	adds	r2, #1
 8001094:	602a      	str	r2, [r5, #0]
 8001096:	68a2      	ldr	r2, [r4, #8]
 8001098:	3b01      	subs	r3, #1
 800109a:	3a01      	subs	r2, #1
 800109c:	606b      	str	r3, [r5, #4]
 800109e:	3701      	adds	r7, #1
 80010a0:	60a2      	str	r2, [r4, #8]
 80010a2:	b142      	cbz	r2, 80010b6 <_scanf_chars+0x8e>
 80010a4:	2b00      	cmp	r3, #0
 80010a6:	dcd7      	bgt.n	8001058 <_scanf_chars+0x30>
 80010a8:	f8d4 3180 	ldr.w	r3, [r4, #384]	@ 0x180
 80010ac:	4629      	mov	r1, r5
 80010ae:	4640      	mov	r0, r8
 80010b0:	4798      	blx	r3
 80010b2:	2800      	cmp	r0, #0
 80010b4:	d0d0      	beq.n	8001058 <_scanf_chars+0x30>
 80010b6:	6823      	ldr	r3, [r4, #0]
 80010b8:	f013 0310 	ands.w	r3, r3, #16
 80010bc:	d105      	bne.n	80010ca <_scanf_chars+0xa2>
 80010be:	68e2      	ldr	r2, [r4, #12]
 80010c0:	3201      	adds	r2, #1
 80010c2:	60e2      	str	r2, [r4, #12]
 80010c4:	69a2      	ldr	r2, [r4, #24]
 80010c6:	b102      	cbz	r2, 80010ca <_scanf_chars+0xa2>
 80010c8:	7033      	strb	r3, [r6, #0]
 80010ca:	6923      	ldr	r3, [r4, #16]
 80010cc:	443b      	add	r3, r7
 80010ce:	6123      	str	r3, [r4, #16]
 80010d0:	2000      	movs	r0, #0
 80010d2:	e8bd 83f8 	ldmia.w	sp!, {r3, r4, r5, r6, r7, r8, r9, pc}
 80010d6:	bf00      	nop
 80010d8:	080016ac 	.word	0x080016ac

080010dc <_scanf_i>:
 80010dc:	e92d 4ff0 	stmdb	sp!, {r4, r5, r6, r7, r8, r9, sl, fp, lr}
 80010e0:	4698      	mov	r8, r3
 80010e2:	4b74      	ldr	r3, [pc, #464]	@ (80012b4 <_scanf_i+0x1d8>)
 80010e4:	460c      	mov	r4, r1
 80010e6:	4682      	mov	sl, r0
 80010e8:	4616      	mov	r6, r2
 80010ea:	e893 0007 	ldmia.w	r3, {r0, r1, r2}
 80010ee:	b087      	sub	sp, #28
 80010f0:	ab03      	add	r3, sp, #12
 80010f2:	e883 0007 	stmia.w	r3, {r0, r1, r2}
 80010f6:	4b70      	ldr	r3, [pc, #448]	@ (80012b8 <_scanf_i+0x1dc>)
 80010f8:	69a1      	ldr	r1, [r4, #24]
 80010fa:	4a70      	ldr	r2, [pc, #448]	@ (80012bc <_scanf_i+0x1e0>)
 80010fc:	2903      	cmp	r1, #3
 80010fe:	bf08      	it	eq
 8001100:	461a      	moveq	r2, r3
 8001102:	68a3      	ldr	r3, [r4, #8]
 8001104:	9201      	str	r2, [sp, #4]
 8001106:	1e5a      	subs	r2, r3, #1
 8001108:	f5b2 7fae 	cmp.w	r2, #348	@ 0x15c
 800110c:	bf88      	it	hi
 800110e:	f46f 75ae 	mvnhi.w	r5, #348	@ 0x15c
 8001112:	4627      	mov	r7, r4
 8001114:	bf82      	ittt	hi
 8001116:	eb03 0905 	addhi.w	r9, r3, r5
 800111a:	f240 135d 	movwhi	r3, #349	@ 0x15d
 800111e:	60a3      	strhi	r3, [r4, #8]
 8001120:	f857 3b1c 	ldr.w	r3, [r7], #28
 8001124:	f443 6350 	orr.w	r3, r3, #3328	@ 0xd00
 8001128:	bf98      	it	ls
 800112a:	f04f 0900 	movls.w	r9, #0
 800112e:	6023      	str	r3, [r4, #0]
 8001130:	463d      	mov	r5, r7
 8001132:	f04f 0b00 	mov.w	fp, #0
 8001136:	6831      	ldr	r1, [r6, #0]
 8001138:	ab03      	add	r3, sp, #12
 800113a:	7809      	ldrb	r1, [r1, #0]
 800113c:	f853 002b 	ldr.w	r0, [r3, fp, lsl #2]
 8001140:	2202      	movs	r2, #2
 8001142:	f7ff f84d 	bl	80001e0 <memchr>
 8001146:	b328      	cbz	r0, 8001194 <_scanf_i+0xb8>
 8001148:	f1bb 0f01 	cmp.w	fp, #1
 800114c:	d159      	bne.n	8001202 <_scanf_i+0x126>
 800114e:	6862      	ldr	r2, [r4, #4]
 8001150:	b92a      	cbnz	r2, 800115e <_scanf_i+0x82>
 8001152:	6822      	ldr	r2, [r4, #0]
 8001154:	2108      	movs	r1, #8
 8001156:	f442 7200 	orr.w	r2, r2, #512	@ 0x200
 800115a:	6061      	str	r1, [r4, #4]
 800115c:	6022      	str	r2, [r4, #0]
 800115e:	6822      	ldr	r2, [r4, #0]
 8001160:	f422 62a0 	bic.w	r2, r2, #1280	@ 0x500
 8001164:	6022      	str	r2, [r4, #0]
 8001166:	68a2      	ldr	r2, [r4, #8]
 8001168:	1e51      	subs	r1, r2, #1
 800116a:	60a1      	str	r1, [r4, #8]
 800116c:	b192      	cbz	r2, 8001194 <_scanf_i+0xb8>
 800116e:	6832      	ldr	r2, [r6, #0]
 8001170:	1c51      	adds	r1, r2, #1
 8001172:	6031      	str	r1, [r6, #0]
 8001174:	7812      	ldrb	r2, [r2, #0]
 8001176:	f805 2b01 	strb.w	r2, [r5], #1
 800117a:	6872      	ldr	r2, [r6, #4]
 800117c:	3a01      	subs	r2, #1
 800117e:	2a00      	cmp	r2, #0
 8001180:	6072      	str	r2, [r6, #4]
 8001182:	dc07      	bgt.n	8001194 <_scanf_i+0xb8>
 8001184:	f8d4 2180 	ldr.w	r2, [r4, #384]	@ 0x180
 8001188:	4631      	mov	r1, r6
 800118a:	4650      	mov	r0, sl
 800118c:	4790      	blx	r2
 800118e:	2800      	cmp	r0, #0
 8001190:	f040 8085 	bne.w	800129e <_scanf_i+0x1c2>
 8001194:	f10b 0b01 	add.w	fp, fp, #1
 8001198:	f1bb 0f03 	cmp.w	fp, #3
 800119c:	d1cb      	bne.n	8001136 <_scanf_i+0x5a>
 800119e:	6863      	ldr	r3, [r4, #4]
 80011a0:	b90b      	cbnz	r3, 80011a6 <_scanf_i+0xca>
 80011a2:	230a      	movs	r3, #10
 80011a4:	6063      	str	r3, [r4, #4]
 80011a6:	6863      	ldr	r3, [r4, #4]
 80011a8:	4945      	ldr	r1, [pc, #276]	@ (80012c0 <_scanf_i+0x1e4>)
 80011aa:	6960      	ldr	r0, [r4, #20]
 80011ac:	1ac9      	subs	r1, r1, r3
 80011ae:	f000 f889 	bl	80012c4 <__sccl>
 80011b2:	f04f 0b00 	mov.w	fp, #0
 80011b6:	68a3      	ldr	r3, [r4, #8]
 80011b8:	6822      	ldr	r2, [r4, #0]
 80011ba:	2b00      	cmp	r3, #0
 80011bc:	d03d      	beq.n	800123a <_scanf_i+0x15e>
 80011be:	6831      	ldr	r1, [r6, #0]
 80011c0:	6960      	ldr	r0, [r4, #20]
 80011c2:	f891 c000 	ldrb.w	ip, [r1]
 80011c6:	f810 000c 	ldrb.w	r0, [r0, ip]
 80011ca:	2800      	cmp	r0, #0
 80011cc:	d035      	beq.n	800123a <_scanf_i+0x15e>
 80011ce:	f1bc 0f30 	cmp.w	ip, #48	@ 0x30
 80011d2:	d124      	bne.n	800121e <_scanf_i+0x142>
 80011d4:	0510      	lsls	r0, r2, #20
 80011d6:	d522      	bpl.n	800121e <_scanf_i+0x142>
 80011d8:	f10b 0b01 	add.w	fp, fp, #1
 80011dc:	f1b9 0f00 	cmp.w	r9, #0
 80011e0:	d003      	beq.n	80011ea <_scanf_i+0x10e>
 80011e2:	3301      	adds	r3, #1
 80011e4:	f109 39ff 	add.w	r9, r9, #4294967295	@ 0xffffffff
 80011e8:	60a3      	str	r3, [r4, #8]
 80011ea:	6873      	ldr	r3, [r6, #4]
 80011ec:	3b01      	subs	r3, #1
 80011ee:	2b00      	cmp	r3, #0
 80011f0:	6073      	str	r3, [r6, #4]
 80011f2:	dd1b      	ble.n	800122c <_scanf_i+0x150>
 80011f4:	6833      	ldr	r3, [r6, #0]
 80011f6:	3301      	adds	r3, #1
 80011f8:	6033      	str	r3, [r6, #0]
 80011fa:	68a3      	ldr	r3, [r4, #8]
 80011fc:	3b01      	subs	r3, #1
 80011fe:	60a3      	str	r3, [r4, #8]
 8001200:	e7d9      	b.n	80011b6 <_scanf_i+0xda>
 8001202:	f1bb 0f02 	cmp.w	fp, #2
 8001206:	d1ae      	bne.n	8001166 <_scanf_i+0x8a>
 8001208:	6822      	ldr	r2, [r4, #0]
 800120a:	f402 61c0 	and.w	r1, r2, #1536	@ 0x600
 800120e:	f5b1 7f00 	cmp.w	r1, #512	@ 0x200
 8001212:	d1bf      	bne.n	8001194 <_scanf_i+0xb8>
 8001214:	2110      	movs	r1, #16
 8001216:	6061      	str	r1, [r4, #4]
 8001218:	f442 7280 	orr.w	r2, r2, #256	@ 0x100
 800121c:	e7a2      	b.n	8001164 <_scanf_i+0x88>
 800121e:	f422 6210 	bic.w	r2, r2, #2304	@ 0x900
 8001222:	6022      	str	r2, [r4, #0]
 8001224:	780b      	ldrb	r3, [r1, #0]
 8001226:	f805 3b01 	strb.w	r3, [r5], #1
 800122a:	e7de      	b.n	80011ea <_scanf_i+0x10e>
 800122c:	f8d4 3180 	ldr.w	r3, [r4, #384]	@ 0x180
 8001230:	4631      	mov	r1, r6
 8001232:	4650      	mov	r0, sl
 8001234:	4798      	blx	r3
 8001236:	2800      	cmp	r0, #0
 8001238:	d0df      	beq.n	80011fa <_scanf_i+0x11e>
 800123a:	6823      	ldr	r3, [r4, #0]
 800123c:	05d9      	lsls	r1, r3, #23
 800123e:	d50d      	bpl.n	800125c <_scanf_i+0x180>
 8001240:	42bd      	cmp	r5, r7
 8001242:	d909      	bls.n	8001258 <_scanf_i+0x17c>
 8001244:	f815 1c01 	ldrb.w	r1, [r5, #-1]
 8001248:	f8d4 317c 	ldr.w	r3, [r4, #380]	@ 0x17c
 800124c:	4632      	mov	r2, r6
 800124e:	4650      	mov	r0, sl
 8001250:	4798      	blx	r3
 8001252:	f105 39ff 	add.w	r9, r5, #4294967295	@ 0xffffffff
 8001256:	464d      	mov	r5, r9
 8001258:	42bd      	cmp	r5, r7
 800125a:	d028      	beq.n	80012ae <_scanf_i+0x1d2>
 800125c:	6822      	ldr	r2, [r4, #0]
 800125e:	f012 0210 	ands.w	r2, r2, #16
 8001262:	d113      	bne.n	800128c <_scanf_i+0x1b0>
 8001264:	702a      	strb	r2, [r5, #0]
 8001266:	6863      	ldr	r3, [r4, #4]
 8001268:	9e01      	ldr	r6, [sp, #4]
 800126a:	4639      	mov	r1, r7
 800126c:	4650      	mov	r0, sl
 800126e:	47b0      	blx	r6
 8001270:	f8d8 3000 	ldr.w	r3, [r8]
 8001274:	6821      	ldr	r1, [r4, #0]
 8001276:	1d1a      	adds	r2, r3, #4
 8001278:	f8c8 2000 	str.w	r2, [r8]
 800127c:	f011 0f20 	tst.w	r1, #32
 8001280:	681b      	ldr	r3, [r3, #0]
 8001282:	d00f      	beq.n	80012a4 <_scanf_i+0x1c8>
 8001284:	6018      	str	r0, [r3, #0]
 8001286:	68e3      	ldr	r3, [r4, #12]
 8001288:	3301      	adds	r3, #1
 800128a:	60e3      	str	r3, [r4, #12]
 800128c:	6923      	ldr	r3, [r4, #16]
 800128e:	1bed      	subs	r5, r5, r7
 8001290:	445d      	add	r5, fp
 8001292:	442b      	add	r3, r5
 8001294:	6123      	str	r3, [r4, #16]
 8001296:	2000      	movs	r0, #0
 8001298:	b007      	add	sp, #28
 800129a:	e8bd 8ff0 	ldmia.w	sp!, {r4, r5, r6, r7, r8, r9, sl, fp, pc}
 800129e:	f04f 0b00 	mov.w	fp, #0
 80012a2:	e7ca      	b.n	800123a <_scanf_i+0x15e>
 80012a4:	07ca      	lsls	r2, r1, #31
 80012a6:	bf4c      	ite	mi
 80012a8:	8018      	strhmi	r0, [r3, #0]
 80012aa:	6018      	strpl	r0, [r3, #0]
 80012ac:	e7eb      	b.n	8001286 <_scanf_i+0x1aa>
 80012ae:	2001      	movs	r0, #1
 80012b0:	e7f2      	b.n	8001298 <_scanf_i+0x1bc>
 80012b2:	bf00      	nop
 80012b4:	08001680 	.word	0x08001680
 80012b8:	08001539 	.word	0x08001539
 80012bc:	08001619 	.word	0x08001619
 80012c0:	080016a0 	.word	0x080016a0

080012c4 <__sccl>:
 80012c4:	b570      	push	{r4, r5, r6, lr}
 80012c6:	780b      	ldrb	r3, [r1, #0]
 80012c8:	4604      	mov	r4, r0
 80012ca:	2b5e      	cmp	r3, #94	@ 0x5e
 80012cc:	bf0b      	itete	eq
 80012ce:	784b      	ldrbeq	r3, [r1, #1]
 80012d0:	1c4a      	addne	r2, r1, #1
 80012d2:	1c8a      	addeq	r2, r1, #2
 80012d4:	2100      	movne	r1, #0
 80012d6:	bf08      	it	eq
 80012d8:	2101      	moveq	r1, #1
 80012da:	3801      	subs	r0, #1
 80012dc:	f104 05ff 	add.w	r5, r4, #255	@ 0xff
 80012e0:	f800 1f01 	strb.w	r1, [r0, #1]!
 80012e4:	42a8      	cmp	r0, r5
 80012e6:	d1fb      	bne.n	80012e0 <__sccl+0x1c>
 80012e8:	b90b      	cbnz	r3, 80012ee <__sccl+0x2a>
 80012ea:	1e50      	subs	r0, r2, #1
 80012ec:	bd70      	pop	{r4, r5, r6, pc}
 80012ee:	f081 0101 	eor.w	r1, r1, #1
 80012f2:	54e1      	strb	r1, [r4, r3]
 80012f4:	4610      	mov	r0, r2
 80012f6:	4602      	mov	r2, r0
 80012f8:	f812 5b01 	ldrb.w	r5, [r2], #1
 80012fc:	2d2d      	cmp	r5, #45	@ 0x2d
 80012fe:	d005      	beq.n	800130c <__sccl+0x48>
 8001300:	2d5d      	cmp	r5, #93	@ 0x5d
 8001302:	d016      	beq.n	8001332 <__sccl+0x6e>
 8001304:	2d00      	cmp	r5, #0
 8001306:	d0f1      	beq.n	80012ec <__sccl+0x28>
 8001308:	462b      	mov	r3, r5
 800130a:	e7f2      	b.n	80012f2 <__sccl+0x2e>
 800130c:	7846      	ldrb	r6, [r0, #1]
 800130e:	2e5d      	cmp	r6, #93	@ 0x5d
 8001310:	d0fa      	beq.n	8001308 <__sccl+0x44>
 8001312:	42b3      	cmp	r3, r6
 8001314:	dcf8      	bgt.n	8001308 <__sccl+0x44>
 8001316:	3002      	adds	r0, #2
 8001318:	461a      	mov	r2, r3
 800131a:	3201      	adds	r2, #1
 800131c:	4296      	cmp	r6, r2
 800131e:	54a1      	strb	r1, [r4, r2]
 8001320:	dcfb      	bgt.n	800131a <__sccl+0x56>
 8001322:	1af2      	subs	r2, r6, r3
 8001324:	3a01      	subs	r2, #1
 8001326:	1c5d      	adds	r5, r3, #1
 8001328:	42b3      	cmp	r3, r6
 800132a:	bfa8      	it	ge
 800132c:	2200      	movge	r2, #0
 800132e:	18ab      	adds	r3, r5, r2
 8001330:	e7e1      	b.n	80012f6 <__sccl+0x32>
 8001332:	4610      	mov	r0, r2
 8001334:	e7da      	b.n	80012ec <__sccl+0x28>

08001336 <__submore>:
 8001336:	e92d 41f0 	stmdb	sp!, {r4, r5, r6, r7, r8, lr}
 800133a:	460c      	mov	r4, r1
 800133c:	6b49      	ldr	r1, [r1, #52]	@ 0x34
 800133e:	f104 0344 	add.w	r3, r4, #68	@ 0x44
 8001342:	4299      	cmp	r1, r3
 8001344:	d11d      	bne.n	8001382 <__submore+0x4c>
 8001346:	f44f 6180 	mov.w	r1, #1024	@ 0x400
 800134a:	f7ff fc15 	bl	8000b78 <_malloc_r>
 800134e:	b918      	cbnz	r0, 8001358 <__submore+0x22>
 8001350:	f04f 30ff 	mov.w	r0, #4294967295	@ 0xffffffff
 8001354:	e8bd 81f0 	ldmia.w	sp!, {r4, r5, r6, r7, r8, pc}
 8001358:	f44f 6380 	mov.w	r3, #1024	@ 0x400
 800135c:	63a3      	str	r3, [r4, #56]	@ 0x38
 800135e:	f894 3046 	ldrb.w	r3, [r4, #70]	@ 0x46
 8001362:	6360      	str	r0, [r4, #52]	@ 0x34
 8001364:	f880 33ff 	strb.w	r3, [r0, #1023]	@ 0x3ff
 8001368:	f894 3045 	ldrb.w	r3, [r4, #69]	@ 0x45
 800136c:	f880 33fe 	strb.w	r3, [r0, #1022]	@ 0x3fe
 8001370:	f894 3044 	ldrb.w	r3, [r4, #68]	@ 0x44
 8001374:	f880 33fd 	strb.w	r3, [r0, #1021]	@ 0x3fd
 8001378:	f200 30fd 	addw	r0, r0, #1021	@ 0x3fd
 800137c:	6020      	str	r0, [r4, #0]
 800137e:	2000      	movs	r0, #0
 8001380:	e7e8      	b.n	8001354 <__submore+0x1e>
 8001382:	6ba6      	ldr	r6, [r4, #56]	@ 0x38
 8001384:	0077      	lsls	r7, r6, #1
 8001386:	463a      	mov	r2, r7
 8001388:	f000 f82e 	bl	80013e8 <_realloc_r>
 800138c:	4605      	mov	r5, r0
 800138e:	2800      	cmp	r0, #0
 8001390:	d0de      	beq.n	8001350 <__submore+0x1a>
 8001392:	eb00 0806 	add.w	r8, r0, r6
 8001396:	4601      	mov	r1, r0
 8001398:	4632      	mov	r2, r6
 800139a:	4640      	mov	r0, r8
 800139c:	f000 f816 	bl	80013cc <memcpy>
 80013a0:	e9c4 570d 	strd	r5, r7, [r4, #52]	@ 0x34
 80013a4:	f8c4 8000 	str.w	r8, [r4]
 80013a8:	e7e9      	b.n	800137e <__submore+0x48>
	...

080013ac <_sbrk_r>:
 80013ac:	b538      	push	{r3, r4, r5, lr}
 80013ae:	4d06      	ldr	r5, [pc, #24]	@ (80013c8 <_sbrk_r+0x1c>)
 80013b0:	2300      	movs	r3, #0
 80013b2:	4604      	mov	r4, r0
 80013b4:	4608      	mov	r0, r1
 80013b6:	602b      	str	r3, [r5, #0]
 80013b8:	f7ff f9a8 	bl	800070c <_sbrk>
 80013bc:	1c43      	adds	r3, r0, #1
 80013be:	d102      	bne.n	80013c6 <_sbrk_r+0x1a>
 80013c0:	682b      	ldr	r3, [r5, #0]
 80013c2:	b103      	cbz	r3, 80013c6 <_sbrk_r+0x1a>
 80013c4:	6023      	str	r3, [r4, #0]
 80013c6:	bd38      	pop	{r3, r4, r5, pc}
 80013c8:	200001ac 	.word	0x200001ac

080013cc <memcpy>:
 80013cc:	440a      	add	r2, r1
 80013ce:	4291      	cmp	r1, r2
 80013d0:	f100 33ff 	add.w	r3, r0, #4294967295	@ 0xffffffff
 80013d4:	d100      	bne.n	80013d8 <memcpy+0xc>
 80013d6:	4770      	bx	lr
 80013d8:	b510      	push	{r4, lr}
 80013da:	f811 4b01 	ldrb.w	r4, [r1], #1
 80013de:	f803 4f01 	strb.w	r4, [r3, #1]!
 80013e2:	4291      	cmp	r1, r2
 80013e4:	d1f9      	bne.n	80013da <memcpy+0xe>
 80013e6:	bd10      	pop	{r4, pc}

080013e8 <_realloc_r>:
 80013e8:	e92d 41f0 	stmdb	sp!, {r4, r5, r6, r7, r8, lr}
 80013ec:	4680      	mov	r8, r0
 80013ee:	4615      	mov	r5, r2
 80013f0:	460c      	mov	r4, r1
 80013f2:	b921      	cbnz	r1, 80013fe <_realloc_r+0x16>
 80013f4:	e8bd 41f0 	ldmia.w	sp!, {r4, r5, r6, r7, r8, lr}
 80013f8:	4611      	mov	r1, r2
 80013fa:	f7ff bbbd 	b.w	8000b78 <_malloc_r>
 80013fe:	b92a      	cbnz	r2, 800140c <_realloc_r+0x24>
 8001400:	f7ff fb4e 	bl	8000aa0 <_free_r>
 8001404:	2400      	movs	r4, #0
 8001406:	4620      	mov	r0, r4
 8001408:	e8bd 81f0 	ldmia.w	sp!, {r4, r5, r6, r7, r8, pc}
 800140c:	f000 f906 	bl	800161c <_malloc_usable_size_r>
 8001410:	4285      	cmp	r5, r0
 8001412:	4606      	mov	r6, r0
 8001414:	d802      	bhi.n	800141c <_realloc_r+0x34>
 8001416:	ebb5 0f50 	cmp.w	r5, r0, lsr #1
 800141a:	d8f4      	bhi.n	8001406 <_realloc_r+0x1e>
 800141c:	4629      	mov	r1, r5
 800141e:	4640      	mov	r0, r8
 8001420:	f7ff fbaa 	bl	8000b78 <_malloc_r>
 8001424:	4607      	mov	r7, r0
 8001426:	2800      	cmp	r0, #0
 8001428:	d0ec      	beq.n	8001404 <_realloc_r+0x1c>
 800142a:	42b5      	cmp	r5, r6
 800142c:	462a      	mov	r2, r5
 800142e:	4621      	mov	r1, r4
 8001430:	bf28      	it	cs
 8001432:	4632      	movcs	r2, r6
 8001434:	f7ff ffca 	bl	80013cc <memcpy>
 8001438:	4621      	mov	r1, r4
 800143a:	4640      	mov	r0, r8
 800143c:	f7ff fb30 	bl	8000aa0 <_free_r>
 8001440:	463c      	mov	r4, r7
 8001442:	e7e0      	b.n	8001406 <_realloc_r+0x1e>

08001444 <_strtol_l.constprop.0>:
 8001444:	2b24      	cmp	r3, #36	@ 0x24
 8001446:	e92d 47f0 	stmdb	sp!, {r4, r5, r6, r7, r8, r9, sl, lr}
 800144a:	4686      	mov	lr, r0
 800144c:	4690      	mov	r8, r2
 800144e:	d801      	bhi.n	8001454 <_strtol_l.constprop.0+0x10>
 8001450:	2b01      	cmp	r3, #1
 8001452:	d106      	bne.n	8001462 <_strtol_l.constprop.0+0x1e>
 8001454:	f7ff faf8 	bl	8000a48 <__errno>
 8001458:	2316      	movs	r3, #22
 800145a:	6003      	str	r3, [r0, #0]
 800145c:	2000      	movs	r0, #0
 800145e:	e8bd 87f0 	ldmia.w	sp!, {r4, r5, r6, r7, r8, r9, sl, pc}
 8001462:	4834      	ldr	r0, [pc, #208]	@ (8001534 <_strtol_l.constprop.0+0xf0>)
 8001464:	460d      	mov	r5, r1
 8001466:	462a      	mov	r2, r5
 8001468:	f815 4b01 	ldrb.w	r4, [r5], #1
 800146c:	5d06      	ldrb	r6, [r0, r4]
 800146e:	f016 0608 	ands.w	r6, r6, #8
 8001472:	d1f8      	bne.n	8001466 <_strtol_l.constprop.0+0x22>
 8001474:	2c2d      	cmp	r4, #45	@ 0x2d
 8001476:	d12d      	bne.n	80014d4 <_strtol_l.constprop.0+0x90>
 8001478:	782c      	ldrb	r4, [r5, #0]
 800147a:	2601      	movs	r6, #1
 800147c:	1c95      	adds	r5, r2, #2
 800147e:	f033 0210 	bics.w	r2, r3, #16
 8001482:	d109      	bne.n	8001498 <_strtol_l.constprop.0+0x54>
 8001484:	2c30      	cmp	r4, #48	@ 0x30
 8001486:	d12a      	bne.n	80014de <_strtol_l.constprop.0+0x9a>
 8001488:	782a      	ldrb	r2, [r5, #0]
 800148a:	f002 02df 	and.w	r2, r2, #223	@ 0xdf
 800148e:	2a58      	cmp	r2, #88	@ 0x58
 8001490:	d125      	bne.n	80014de <_strtol_l.constprop.0+0x9a>
 8001492:	786c      	ldrb	r4, [r5, #1]
 8001494:	2310      	movs	r3, #16
 8001496:	3502      	adds	r5, #2
 8001498:	f106 4c00 	add.w	ip, r6, #2147483648	@ 0x80000000
 800149c:	f10c 3cff 	add.w	ip, ip, #4294967295	@ 0xffffffff
 80014a0:	2200      	movs	r2, #0
 80014a2:	fbbc f9f3 	udiv	r9, ip, r3
 80014a6:	4610      	mov	r0, r2
 80014a8:	fb03 ca19 	mls	sl, r3, r9, ip
 80014ac:	f1a4 0730 	sub.w	r7, r4, #48	@ 0x30
 80014b0:	2f09      	cmp	r7, #9
 80014b2:	d81b      	bhi.n	80014ec <_strtol_l.constprop.0+0xa8>
 80014b4:	463c      	mov	r4, r7
 80014b6:	42a3      	cmp	r3, r4
 80014b8:	dd27      	ble.n	800150a <_strtol_l.constprop.0+0xc6>
 80014ba:	1c57      	adds	r7, r2, #1
 80014bc:	d007      	beq.n	80014ce <_strtol_l.constprop.0+0x8a>
 80014be:	4581      	cmp	r9, r0
 80014c0:	d320      	bcc.n	8001504 <_strtol_l.constprop.0+0xc0>
 80014c2:	d101      	bne.n	80014c8 <_strtol_l.constprop.0+0x84>
 80014c4:	45a2      	cmp	sl, r4
 80014c6:	db1d      	blt.n	8001504 <_strtol_l.constprop.0+0xc0>
 80014c8:	fb00 4003 	mla	r0, r0, r3, r4
 80014cc:	2201      	movs	r2, #1
 80014ce:	f815 4b01 	ldrb.w	r4, [r5], #1
 80014d2:	e7eb      	b.n	80014ac <_strtol_l.constprop.0+0x68>
 80014d4:	2c2b      	cmp	r4, #43	@ 0x2b
 80014d6:	bf04      	itt	eq
 80014d8:	782c      	ldrbeq	r4, [r5, #0]
 80014da:	1c95      	addeq	r5, r2, #2
 80014dc:	e7cf      	b.n	800147e <_strtol_l.constprop.0+0x3a>
 80014de:	2b00      	cmp	r3, #0
 80014e0:	d1da      	bne.n	8001498 <_strtol_l.constprop.0+0x54>
 80014e2:	2c30      	cmp	r4, #48	@ 0x30
 80014e4:	bf0c      	ite	eq
 80014e6:	2308      	moveq	r3, #8
 80014e8:	230a      	movne	r3, #10
 80014ea:	e7d5      	b.n	8001498 <_strtol_l.constprop.0+0x54>
 80014ec:	f1a4 0741 	sub.w	r7, r4, #65	@ 0x41
 80014f0:	2f19      	cmp	r7, #25
 80014f2:	d801      	bhi.n	80014f8 <_strtol_l.constprop.0+0xb4>
 80014f4:	3c37      	subs	r4, #55	@ 0x37
 80014f6:	e7de      	b.n	80014b6 <_strtol_l.constprop.0+0x72>
 80014f8:	f1a4 0761 	sub.w	r7, r4, #97	@ 0x61
 80014fc:	2f19      	cmp	r7, #25
 80014fe:	d804      	bhi.n	800150a <_strtol_l.constprop.0+0xc6>
 8001500:	3c57      	subs	r4, #87	@ 0x57
 8001502:	e7d8      	b.n	80014b6 <_strtol_l.constprop.0+0x72>
 8001504:	f04f 32ff 	mov.w	r2, #4294967295	@ 0xffffffff
 8001508:	e7e1      	b.n	80014ce <_strtol_l.constprop.0+0x8a>
 800150a:	1c53      	adds	r3, r2, #1
 800150c:	d108      	bne.n	8001520 <_strtol_l.constprop.0+0xdc>
 800150e:	2322      	movs	r3, #34	@ 0x22
 8001510:	f8ce 3000 	str.w	r3, [lr]
 8001514:	4660      	mov	r0, ip
 8001516:	f1b8 0f00 	cmp.w	r8, #0
 800151a:	d0a0      	beq.n	800145e <_strtol_l.constprop.0+0x1a>
 800151c:	1e69      	subs	r1, r5, #1
 800151e:	e006      	b.n	800152e <_strtol_l.constprop.0+0xea>
 8001520:	b106      	cbz	r6, 8001524 <_strtol_l.constprop.0+0xe0>
 8001522:	4240      	negs	r0, r0
 8001524:	f1b8 0f00 	cmp.w	r8, #0
 8001528:	d099      	beq.n	800145e <_strtol_l.constprop.0+0x1a>
 800152a:	2a00      	cmp	r2, #0
 800152c:	d1f6      	bne.n	800151c <_strtol_l.constprop.0+0xd8>
 800152e:	f8c8 1000 	str.w	r1, [r8]
 8001532:	e794      	b.n	800145e <_strtol_l.constprop.0+0x1a>
 8001534:	080016ac 	.word	0x080016ac

08001538 <_strtol_r>:
 8001538:	f7ff bf84 	b.w	8001444 <_strtol_l.constprop.0>

0800153c <_strtoul_l.constprop.0>:
 800153c:	e92d 43f0 	stmdb	sp!, {r4, r5, r6, r7, r8, r9, lr}
 8001540:	4e34      	ldr	r6, [pc, #208]	@ (8001614 <_strtoul_l.constprop.0+0xd8>)
 8001542:	4686      	mov	lr, r0
 8001544:	460d      	mov	r5, r1
 8001546:	4628      	mov	r0, r5
 8001548:	f815 4b01 	ldrb.w	r4, [r5], #1
 800154c:	5d37      	ldrb	r7, [r6, r4]
 800154e:	f017 0708 	ands.w	r7, r7, #8
 8001552:	d1f8      	bne.n	8001546 <_strtoul_l.constprop.0+0xa>
 8001554:	2c2d      	cmp	r4, #45	@ 0x2d
 8001556:	d12f      	bne.n	80015b8 <_strtoul_l.constprop.0+0x7c>
 8001558:	782c      	ldrb	r4, [r5, #0]
 800155a:	2701      	movs	r7, #1
 800155c:	1c85      	adds	r5, r0, #2
 800155e:	f033 0010 	bics.w	r0, r3, #16
 8001562:	d109      	bne.n	8001578 <_strtoul_l.constprop.0+0x3c>
 8001564:	2c30      	cmp	r4, #48	@ 0x30
 8001566:	d12c      	bne.n	80015c2 <_strtoul_l.constprop.0+0x86>
 8001568:	7828      	ldrb	r0, [r5, #0]
 800156a:	f000 00df 	and.w	r0, r0, #223	@ 0xdf
 800156e:	2858      	cmp	r0, #88	@ 0x58
 8001570:	d127      	bne.n	80015c2 <_strtoul_l.constprop.0+0x86>
 8001572:	786c      	ldrb	r4, [r5, #1]
 8001574:	2310      	movs	r3, #16
 8001576:	3502      	adds	r5, #2
 8001578:	f04f 38ff 	mov.w	r8, #4294967295	@ 0xffffffff
 800157c:	2600      	movs	r6, #0
 800157e:	fbb8 f8f3 	udiv	r8, r8, r3
 8001582:	fb03 f908 	mul.w	r9, r3, r8
 8001586:	ea6f 0909 	mvn.w	r9, r9
 800158a:	4630      	mov	r0, r6
 800158c:	f1a4 0c30 	sub.w	ip, r4, #48	@ 0x30
 8001590:	f1bc 0f09 	cmp.w	ip, #9
 8001594:	d81c      	bhi.n	80015d0 <_strtoul_l.constprop.0+0x94>
 8001596:	4664      	mov	r4, ip
 8001598:	42a3      	cmp	r3, r4
 800159a:	dd2a      	ble.n	80015f2 <_strtoul_l.constprop.0+0xb6>
 800159c:	f1b6 3fff 	cmp.w	r6, #4294967295	@ 0xffffffff
 80015a0:	d007      	beq.n	80015b2 <_strtoul_l.constprop.0+0x76>
 80015a2:	4580      	cmp	r8, r0
 80015a4:	d322      	bcc.n	80015ec <_strtoul_l.constprop.0+0xb0>
 80015a6:	d101      	bne.n	80015ac <_strtoul_l.constprop.0+0x70>
 80015a8:	45a1      	cmp	r9, r4
 80015aa:	db1f      	blt.n	80015ec <_strtoul_l.constprop.0+0xb0>
 80015ac:	fb00 4003 	mla	r0, r0, r3, r4
 80015b0:	2601      	movs	r6, #1
 80015b2:	f815 4b01 	ldrb.w	r4, [r5], #1
 80015b6:	e7e9      	b.n	800158c <_strtoul_l.constprop.0+0x50>
 80015b8:	2c2b      	cmp	r4, #43	@ 0x2b
 80015ba:	bf04      	itt	eq
 80015bc:	782c      	ldrbeq	r4, [r5, #0]
 80015be:	1c85      	addeq	r5, r0, #2
 80015c0:	e7cd      	b.n	800155e <_strtoul_l.constprop.0+0x22>
 80015c2:	2b00      	cmp	r3, #0
 80015c4:	d1d8      	bne.n	8001578 <_strtoul_l.constprop.0+0x3c>
 80015c6:	2c30      	cmp	r4, #48	@ 0x30
 80015c8:	bf0c      	ite	eq
 80015ca:	2308      	moveq	r3, #8
 80015cc:	230a      	movne	r3, #10
 80015ce:	e7d3      	b.n	8001578 <_strtoul_l.constprop.0+0x3c>
 80015d0:	f1a4 0c41 	sub.w	ip, r4, #65	@ 0x41
 80015d4:	f1bc 0f19 	cmp.w	ip, #25
 80015d8:	d801      	bhi.n	80015de <_strtoul_l.constprop.0+0xa2>
 80015da:	3c37      	subs	r4, #55	@ 0x37
 80015dc:	e7dc      	b.n	8001598 <_strtoul_l.constprop.0+0x5c>
 80015de:	f1a4 0c61 	sub.w	ip, r4, #97	@ 0x61
 80015e2:	f1bc 0f19 	cmp.w	ip, #25
 80015e6:	d804      	bhi.n	80015f2 <_strtoul_l.constprop.0+0xb6>
 80015e8:	3c57      	subs	r4, #87	@ 0x57
 80015ea:	e7d5      	b.n	8001598 <_strtoul_l.constprop.0+0x5c>
 80015ec:	f04f 36ff 	mov.w	r6, #4294967295	@ 0xffffffff
 80015f0:	e7df      	b.n	80015b2 <_strtoul_l.constprop.0+0x76>
 80015f2:	1c73      	adds	r3, r6, #1
 80015f4:	d106      	bne.n	8001604 <_strtoul_l.constprop.0+0xc8>
 80015f6:	2322      	movs	r3, #34	@ 0x22
 80015f8:	f8ce 3000 	str.w	r3, [lr]
 80015fc:	4630      	mov	r0, r6
 80015fe:	b932      	cbnz	r2, 800160e <_strtoul_l.constprop.0+0xd2>
 8001600:	e8bd 83f0 	ldmia.w	sp!, {r4, r5, r6, r7, r8, r9, pc}
 8001604:	b107      	cbz	r7, 8001608 <_strtoul_l.constprop.0+0xcc>
 8001606:	4240      	negs	r0, r0
 8001608:	2a00      	cmp	r2, #0
 800160a:	d0f9      	beq.n	8001600 <_strtoul_l.constprop.0+0xc4>
 800160c:	b106      	cbz	r6, 8001610 <_strtoul_l.constprop.0+0xd4>
 800160e:	1e69      	subs	r1, r5, #1
 8001610:	6011      	str	r1, [r2, #0]
 8001612:	e7f5      	b.n	8001600 <_strtoul_l.constprop.0+0xc4>
 8001614:	080016ac 	.word	0x080016ac

08001618 <_strtoul_r>:
 8001618:	f7ff bf90 	b.w	800153c <_strtoul_l.constprop.0>

0800161c <_malloc_usable_size_r>:
 800161c:	f851 3c04 	ldr.w	r3, [r1, #-4]
 8001620:	1f18      	subs	r0, r3, #4
 8001622:	2b00      	cmp	r3, #0
 8001624:	bfbc      	itt	lt
 8001626:	580b      	ldrlt	r3, [r1, r0]
 8001628:	18c0      	addlt	r0, r0, r3
 800162a:	4770      	bx	lr

0800162c <_init>:
 800162c:	b5f8      	push	{r3, r4, r5, r6, r7, lr}
 800162e:	bf00      	nop
 8001630:	bcf8      	pop	{r3, r4, r5, r6, r7}
 8001632:	bc08      	pop	{r3}
 8001634:	469e      	mov	lr, r3
 8001636:	4770      	bx	lr

08001638 <_fini>:
 8001638:	b5f8      	push	{r3, r4, r5, r6, r7, lr}
 800163a:	bf00      	nop
 800163c:	bcf8      	pop	{r3, r4, r5, r6, r7}
 800163e:	bc08      	pop	{r3}
 8001640:	469e      	mov	lr, r3
 8001642:	4770      	bx	lr
